
out/main.elf:     file format elf32-littlearm


Disassembly of section .vectortable:

00000000 <__vector_table>:
   0:	20000000 	andcs	r0, r0, r0
   4:	000008e5 	andeq	r0, r0, r5, ror #17
	...
  40:	000008dd 	ldrdeq	r0, [r0], -sp
  44:	000008dd 	ldrdeq	r0, [r0], -sp
  48:	000008dd 	ldrdeq	r0, [r0], -sp
  4c:	000008dd 	ldrdeq	r0, [r0], -sp
  50:	000008dd 	ldrdeq	r0, [r0], -sp
  54:	000008dd 	ldrdeq	r0, [r0], -sp
  58:	000008dd 	ldrdeq	r0, [r0], -sp
  5c:	000008dd 	ldrdeq	r0, [r0], -sp
  60:	000008dd 	ldrdeq	r0, [r0], -sp
  64:	000008dd 	ldrdeq	r0, [r0], -sp
  68:	000008dd 	ldrdeq	r0, [r0], -sp
  6c:	000008dd 	ldrdeq	r0, [r0], -sp
  70:	000008dd 	ldrdeq	r0, [r0], -sp
  74:	000008dd 	ldrdeq	r0, [r0], -sp
  78:	000008dd 	ldrdeq	r0, [r0], -sp
  7c:	000008dd 	ldrdeq	r0, [r0], -sp
  80:	000008dd 	ldrdeq	r0, [r0], -sp
  84:	000008dd 	ldrdeq	r0, [r0], -sp
  88:	000008dd 	ldrdeq	r0, [r0], -sp
  8c:	000008dd 	ldrdeq	r0, [r0], -sp
  90:	000008dd 	ldrdeq	r0, [r0], -sp
  94:	000008dd 	ldrdeq	r0, [r0], -sp
  98:	000008dd 	ldrdeq	r0, [r0], -sp
  9c:	000008dd 	ldrdeq	r0, [r0], -sp
  a0:	000008dd 	ldrdeq	r0, [r0], -sp
  a4:	000008dd 	ldrdeq	r0, [r0], -sp
  a8:	000008dd 	ldrdeq	r0, [r0], -sp
  ac:	000008dd 	ldrdeq	r0, [r0], -sp
  b0:	000008dd 	ldrdeq	r0, [r0], -sp
  b4:	000008dd 	ldrdeq	r0, [r0], -sp
  b8:	000008dd 	ldrdeq	r0, [r0], -sp
  bc:	000008dd 	ldrdeq	r0, [r0], -sp
  c0:	000008dd 	ldrdeq	r0, [r0], -sp
  c4:	000008dd 	ldrdeq	r0, [r0], -sp
  c8:	000008dd 	ldrdeq	r0, [r0], -sp
  cc:	000008dd 	ldrdeq	r0, [r0], -sp
  d0:	000008dd 	ldrdeq	r0, [r0], -sp
  d4:	000008dd 	ldrdeq	r0, [r0], -sp
  d8:	000008dd 	ldrdeq	r0, [r0], -sp
  dc:	000008dd 	ldrdeq	r0, [r0], -sp
  e0:	000008dd 	ldrdeq	r0, [r0], -sp
  e4:	000008dd 	ldrdeq	r0, [r0], -sp
  e8:	000008dd 	ldrdeq	r0, [r0], -sp
  ec:	000008dd 	ldrdeq	r0, [r0], -sp
  f0:	000008dd 	ldrdeq	r0, [r0], -sp
  f4:	000008dd 	ldrdeq	r0, [r0], -sp
  f8:	000008dd 	ldrdeq	r0, [r0], -sp
  fc:	000008dd 	ldrdeq	r0, [r0], -sp
 100:	000008dd 	ldrdeq	r0, [r0], -sp
 104:	000008dd 	ldrdeq	r0, [r0], -sp
 108:	000008dd 	ldrdeq	r0, [r0], -sp
 10c:	000008dd 	ldrdeq	r0, [r0], -sp
 110:	000008dd 	ldrdeq	r0, [r0], -sp
 114:	000008dd 	ldrdeq	r0, [r0], -sp
 118:	000008dd 	ldrdeq	r0, [r0], -sp
 11c:	000008dd 	ldrdeq	r0, [r0], -sp
 120:	000008dd 	ldrdeq	r0, [r0], -sp
 124:	000008dd 	ldrdeq	r0, [r0], -sp
 128:	000008dd 	ldrdeq	r0, [r0], -sp
 12c:	000008dd 	ldrdeq	r0, [r0], -sp
 130:	000008dd 	ldrdeq	r0, [r0], -sp
 134:	000008dd 	ldrdeq	r0, [r0], -sp
 138:	000008dd 	ldrdeq	r0, [r0], -sp
 13c:	000008dd 	ldrdeq	r0, [r0], -sp
 140:	000008dd 	ldrdeq	r0, [r0], -sp
 144:	000008dd 	ldrdeq	r0, [r0], -sp
 148:	000008dd 	ldrdeq	r0, [r0], -sp
 14c:	000008dd 	ldrdeq	r0, [r0], -sp
 150:	000008dd 	ldrdeq	r0, [r0], -sp
 154:	000008dd 	ldrdeq	r0, [r0], -sp
 158:	000008dd 	ldrdeq	r0, [r0], -sp
 15c:	000008dd 	ldrdeq	r0, [r0], -sp
 160:	000008dd 	ldrdeq	r0, [r0], -sp
 164:	000008dd 	ldrdeq	r0, [r0], -sp
 168:	000008dd 	ldrdeq	r0, [r0], -sp
 16c:	000008dd 	ldrdeq	r0, [r0], -sp
 170:	000008dd 	ldrdeq	r0, [r0], -sp
 174:	000008dd 	ldrdeq	r0, [r0], -sp
 178:	000008dd 	ldrdeq	r0, [r0], -sp
 17c:	000008dd 	ldrdeq	r0, [r0], -sp
 180:	000008dd 	ldrdeq	r0, [r0], -sp
 184:	000008dd 	ldrdeq	r0, [r0], -sp
 188:	000008dd 	ldrdeq	r0, [r0], -sp
 18c:	000008dd 	ldrdeq	r0, [r0], -sp
 190:	000008dd 	ldrdeq	r0, [r0], -sp
 194:	000008dd 	ldrdeq	r0, [r0], -sp
 198:	000008dd 	ldrdeq	r0, [r0], -sp
 19c:	000010ed 	andeq	r1, r0, sp, ror #1
 1a0:	00001111 	andeq	r1, r0, r1, lsl r1
 1a4:	00001135 	andeq	r1, r0, r5, lsr r1
 1a8:	00001159 	andeq	r1, r0, r9, asr r1
 1ac:	0000117d 	andeq	r1, r0, sp, ror r1
 1b0:	000008dd 	ldrdeq	r0, [r0], -sp
 1b4:	000008dd 	ldrdeq	r0, [r0], -sp
 1b8:	000008dd 	ldrdeq	r0, [r0], -sp
 1bc:	000008dd 	ldrdeq	r0, [r0], -sp
 1c0:	000008dd 	ldrdeq	r0, [r0], -sp
 1c4:	000008dd 	ldrdeq	r0, [r0], -sp
 1c8:	000008dd 	ldrdeq	r0, [r0], -sp
 1cc:	000008dd 	ldrdeq	r0, [r0], -sp
 1d0:	000008dd 	ldrdeq	r0, [r0], -sp
 1d4:	000008dd 	ldrdeq	r0, [r0], -sp
 1d8:	000008dd 	ldrdeq	r0, [r0], -sp
 1dc:	000008dd 	ldrdeq	r0, [r0], -sp
 1e0:	000008dd 	ldrdeq	r0, [r0], -sp
 1e4:	000008dd 	ldrdeq	r0, [r0], -sp
 1e8:	000008dd 	ldrdeq	r0, [r0], -sp
 1ec:	000008dd 	ldrdeq	r0, [r0], -sp
 1f0:	000008dd 	ldrdeq	r0, [r0], -sp
 1f4:	000008dd 	ldrdeq	r0, [r0], -sp
 1f8:	000008dd 	ldrdeq	r0, [r0], -sp
 1fc:	000008dd 	ldrdeq	r0, [r0], -sp
 200:	000008dd 	ldrdeq	r0, [r0], -sp
 204:	000008dd 	ldrdeq	r0, [r0], -sp
 208:	000008dd 	ldrdeq	r0, [r0], -sp
 20c:	000008dd 	ldrdeq	r0, [r0], -sp
 210:	000008dd 	ldrdeq	r0, [r0], -sp
 214:	000008dd 	ldrdeq	r0, [r0], -sp
 218:	000008dd 	ldrdeq	r0, [r0], -sp
 21c:	000008dd 	ldrdeq	r0, [r0], -sp
 220:	000008dd 	ldrdeq	r0, [r0], -sp
 224:	000008dd 	ldrdeq	r0, [r0], -sp
 228:	000008dd 	ldrdeq	r0, [r0], -sp
 22c:	000008dd 	ldrdeq	r0, [r0], -sp
 230:	000008dd 	ldrdeq	r0, [r0], -sp
 234:	000008dd 	ldrdeq	r0, [r0], -sp
 238:	000008dd 	ldrdeq	r0, [r0], -sp
 23c:	000008dd 	ldrdeq	r0, [r0], -sp
 240:	000008dd 	ldrdeq	r0, [r0], -sp
 244:	000008dd 	ldrdeq	r0, [r0], -sp
 248:	000008dd 	ldrdeq	r0, [r0], -sp
 24c:	000008dd 	ldrdeq	r0, [r0], -sp
 250:	000008dd 	ldrdeq	r0, [r0], -sp
 254:	000008dd 	ldrdeq	r0, [r0], -sp
 258:	000008dd 	ldrdeq	r0, [r0], -sp
 25c:	000008dd 	ldrdeq	r0, [r0], -sp
 260:	000008dd 	ldrdeq	r0, [r0], -sp
 264:	000008dd 	ldrdeq	r0, [r0], -sp
 268:	000008dd 	ldrdeq	r0, [r0], -sp
 26c:	000008dd 	ldrdeq	r0, [r0], -sp
 270:	000008dd 	ldrdeq	r0, [r0], -sp
 274:	000008dd 	ldrdeq	r0, [r0], -sp
 278:	000008dd 	ldrdeq	r0, [r0], -sp
 27c:	000008dd 	ldrdeq	r0, [r0], -sp
 280:	000008dd 	ldrdeq	r0, [r0], -sp
 284:	000008dd 	ldrdeq	r0, [r0], -sp
 288:	000008dd 	ldrdeq	r0, [r0], -sp
 28c:	000008dd 	ldrdeq	r0, [r0], -sp
 290:	000008dd 	ldrdeq	r0, [r0], -sp
 294:	000008dd 	ldrdeq	r0, [r0], -sp
 298:	000008dd 	ldrdeq	r0, [r0], -sp
 29c:	000008dd 	ldrdeq	r0, [r0], -sp
 2a0:	000008dd 	ldrdeq	r0, [r0], -sp
 2a4:	000008dd 	ldrdeq	r0, [r0], -sp
 2a8:	000008dd 	ldrdeq	r0, [r0], -sp
 2ac:	000008dd 	ldrdeq	r0, [r0], -sp
 2b0:	000008dd 	ldrdeq	r0, [r0], -sp
 2b4:	000008dd 	ldrdeq	r0, [r0], -sp
 2b8:	000008dd 	ldrdeq	r0, [r0], -sp
 2bc:	000008dd 	ldrdeq	r0, [r0], -sp
 2c0:	000008dd 	ldrdeq	r0, [r0], -sp
 2c4:	000008dd 	ldrdeq	r0, [r0], -sp
 2c8:	000008dd 	ldrdeq	r0, [r0], -sp
 2cc:	000008dd 	ldrdeq	r0, [r0], -sp
 2d0:	000008dd 	ldrdeq	r0, [r0], -sp
 2d4:	000008dd 	ldrdeq	r0, [r0], -sp
 2d8:	000008dd 	ldrdeq	r0, [r0], -sp
 2dc:	000008dd 	ldrdeq	r0, [r0], -sp
 2e0:	000008dd 	ldrdeq	r0, [r0], -sp
 2e4:	000008dd 	ldrdeq	r0, [r0], -sp
 2e8:	000008dd 	ldrdeq	r0, [r0], -sp
 2ec:	000008dd 	ldrdeq	r0, [r0], -sp
 2f0:	000008dd 	ldrdeq	r0, [r0], -sp
 2f4:	000008dd 	ldrdeq	r0, [r0], -sp
 2f8:	000008dd 	ldrdeq	r0, [r0], -sp
 2fc:	000008dd 	ldrdeq	r0, [r0], -sp
 300:	000008dd 	ldrdeq	r0, [r0], -sp
 304:	000008dd 	ldrdeq	r0, [r0], -sp
 308:	000008dd 	ldrdeq	r0, [r0], -sp
 30c:	000008dd 	ldrdeq	r0, [r0], -sp
 310:	000008dd 	ldrdeq	r0, [r0], -sp
 314:	000008dd 	ldrdeq	r0, [r0], -sp
 318:	000008dd 	ldrdeq	r0, [r0], -sp
 31c:	000008dd 	ldrdeq	r0, [r0], -sp
 320:	000008dd 	ldrdeq	r0, [r0], -sp
 324:	000008dd 	ldrdeq	r0, [r0], -sp
 328:	000008dd 	ldrdeq	r0, [r0], -sp
 32c:	000008dd 	ldrdeq	r0, [r0], -sp
 330:	000008dd 	ldrdeq	r0, [r0], -sp
 334:	000008dd 	ldrdeq	r0, [r0], -sp
 338:	000008dd 	ldrdeq	r0, [r0], -sp
 33c:	000008dd 	ldrdeq	r0, [r0], -sp
 340:	000008dd 	ldrdeq	r0, [r0], -sp
 344:	000008dd 	ldrdeq	r0, [r0], -sp
 348:	000008dd 	ldrdeq	r0, [r0], -sp
 34c:	000008dd 	ldrdeq	r0, [r0], -sp
 350:	000008dd 	ldrdeq	r0, [r0], -sp
 354:	000008dd 	ldrdeq	r0, [r0], -sp
 358:	000008dd 	ldrdeq	r0, [r0], -sp
 35c:	000008dd 	ldrdeq	r0, [r0], -sp
 360:	000008dd 	ldrdeq	r0, [r0], -sp
 364:	000008dd 	ldrdeq	r0, [r0], -sp
 368:	000008dd 	ldrdeq	r0, [r0], -sp
 36c:	000008dd 	ldrdeq	r0, [r0], -sp
 370:	000008dd 	ldrdeq	r0, [r0], -sp
 374:	000008dd 	ldrdeq	r0, [r0], -sp
 378:	000008dd 	ldrdeq	r0, [r0], -sp
 37c:	000008dd 	ldrdeq	r0, [r0], -sp
 380:	000008dd 	ldrdeq	r0, [r0], -sp
 384:	000008dd 	ldrdeq	r0, [r0], -sp
 388:	000008dd 	ldrdeq	r0, [r0], -sp
 38c:	000008dd 	ldrdeq	r0, [r0], -sp
 390:	000008dd 	ldrdeq	r0, [r0], -sp
 394:	000008dd 	ldrdeq	r0, [r0], -sp
 398:	000008dd 	ldrdeq	r0, [r0], -sp
 39c:	000008dd 	ldrdeq	r0, [r0], -sp
 3a0:	000008dd 	ldrdeq	r0, [r0], -sp
 3a4:	000008dd 	ldrdeq	r0, [r0], -sp
 3a8:	000008dd 	ldrdeq	r0, [r0], -sp
 3ac:	000008dd 	ldrdeq	r0, [r0], -sp
 3b0:	000008dd 	ldrdeq	r0, [r0], -sp
 3b4:	000008dd 	ldrdeq	r0, [r0], -sp
 3b8:	000008dd 	ldrdeq	r0, [r0], -sp
 3bc:	000008dd 	ldrdeq	r0, [r0], -sp
 3c0:	000008dd 	ldrdeq	r0, [r0], -sp
 3c4:	000008dd 	ldrdeq	r0, [r0], -sp
 3c8:	000008dd 	ldrdeq	r0, [r0], -sp
 3cc:	000008dd 	ldrdeq	r0, [r0], -sp
 3d0:	000008dd 	ldrdeq	r0, [r0], -sp
 3d4:	000008dd 	ldrdeq	r0, [r0], -sp
 3d8:	000008dd 	ldrdeq	r0, [r0], -sp
 3dc:	000008dd 	ldrdeq	r0, [r0], -sp
 3e0:	000008dd 	ldrdeq	r0, [r0], -sp
 3e4:	000008dd 	ldrdeq	r0, [r0], -sp
 3e8:	000008dd 	ldrdeq	r0, [r0], -sp
 3ec:	000008dd 	ldrdeq	r0, [r0], -sp
 3f0:	000008dd 	ldrdeq	r0, [r0], -sp
 3f4:	000008dd 	ldrdeq	r0, [r0], -sp
 3f8:	000008dd 	ldrdeq	r0, [r0], -sp
 3fc:	000008dd 	ldrdeq	r0, [r0], -sp
 400:	ffffffff 			; <UNDEFINED> instruction: 0xffffffff
 404:	ffffffff 			; <UNDEFINED> instruction: 0xffffffff
 408:	ffffffff 			; <UNDEFINED> instruction: 0xffffffff
 40c:	fffffffe 			; <UNDEFINED> instruction: 0xfffffffe

Disassembly of section .text:

00000800 <main>:
void delay(void);

UART_InitTypeDef uart0_init_struct;

int main (void)
{
     800:	b580      	push	{r7, lr}
     802:	b082      	sub	sp, #8
     804:	af00      	add	r7, sp, #0
    char recv;

    uart_init();
     806:	f000 f81f 	bl	848 <uart_init>
    LPLD_UART_PutCharArr (UART0, "Input something:\r\n",18);
     80a:	f44f 4020 	mov.w	r0, #40960	; 0xa000
     80e:	f2c4 0006 	movt	r0, #16390	; 0x4006
     812:	f641 6158 	movw	r1, #7768	; 0x1e58
     816:	f2c0 0100 	movt	r1, #0
     81a:	f04f 0212 	mov.w	r2, #18
     81e:	f001 f8ff 	bl	1a20 <LPLD_UART_PutCharArr>
    while (1)
    {
        recv = LPLD_UART_GetChar (UART0);
     822:	f44f 4020 	mov.w	r0, #40960	; 0xa000
     826:	f2c4 0006 	movt	r0, #16390	; 0x4006
     82a:	f001 f8bb 	bl	19a4 <LPLD_UART_GetChar>
     82e:	4603      	mov	r3, r0
     830:	71fb      	strb	r3, [r7, #7]
        LPLD_UART_PutChar (UART0, recv);
     832:	79fb      	ldrb	r3, [r7, #7]
     834:	b25b      	sxtb	r3, r3
     836:	f44f 4020 	mov.w	r0, #40960	; 0xa000
     83a:	f2c4 0006 	movt	r0, #16390	; 0x4006
     83e:	4619      	mov	r1, r3
     840:	f001 f8d8 	bl	19f4 <LPLD_UART_PutChar>
        //LPLD_UART_PutCharArr (UART0, "Input something:\r\n",18);
    }
     844:	e7ed      	b.n	822 <main+0x22>
     846:	bf00      	nop

00000848 <uart_init>:
    return 0;
}

void uart_init(void)
{
     848:	b580      	push	{r7, lr}
     84a:	b082      	sub	sp, #8
     84c:	af02      	add	r7, sp, #8
    uart0_init_struct.UART_Uartx = UART0;
     84e:	f240 0314 	movw	r3, #20
     852:	f6c1 73ff 	movt	r3, #8191	; 0x1fff
     856:	f44f 4220 	mov.w	r2, #40960	; 0xa000
     85a:	f2c4 0206 	movt	r2, #16390	; 0x4006
     85e:	601a      	str	r2, [r3, #0]
    uart0_init_struct.UART_BaudRate = 9600;
     860:	f240 0314 	movw	r3, #20
     864:	f6c1 73ff 	movt	r3, #8191	; 0x1fff
     868:	f44f 5216 	mov.w	r2, #9600	; 0x2580
     86c:	605a      	str	r2, [r3, #4]
    uart0_init_struct.UART_RxPin = PTB16;
     86e:	f240 0314 	movw	r3, #20
     872:	f6c1 73ff 	movt	r3, #8191	; 0x1fff
     876:	f04f 0230 	mov.w	r2, #48	; 0x30
     87a:	725a      	strb	r2, [r3, #9]
    uart0_init_struct.UART_TxPin = PTB17;
     87c:	f240 0314 	movw	r3, #20
     880:	f6c1 73ff 	movt	r3, #8191	; 0x1fff
     884:	f04f 0231 	mov.w	r2, #49	; 0x31
     888:	721a      	strb	r2, [r3, #8]

    LPLD_UART_Init (uart0_init_struct);
     88a:	f240 0314 	movw	r3, #20
     88e:	f6c1 73ff 	movt	r3, #8191	; 0x1fff
     892:	691a      	ldr	r2, [r3, #16]
     894:	9200      	str	r2, [sp, #0]
     896:	cb0f      	ldmia	r3, {r0, r1, r2, r3}
     898:	f000 fe16 	bl	14c8 <LPLD_UART_Init>
}
     89c:	46bd      	mov	sp, r7
     89e:	bd80      	pop	{r7, pc}

000008a0 <delay>:

void delay (void)
{
     8a0:	b480      	push	{r7}
     8a2:	b083      	sub	sp, #12
     8a4:	af00      	add	r7, sp, #0
    int x,i;
    for (x = 0xfff; x > 0; x--)
     8a6:	f640 73ff 	movw	r3, #4095	; 0xfff
     8aa:	607b      	str	r3, [r7, #4]
     8ac:	e00e      	b.n	8cc <delay+0x2c>
        for (i = 0xffff; i > 0; i--);
     8ae:	f64f 73ff 	movw	r3, #65535	; 0xffff
     8b2:	603b      	str	r3, [r7, #0]
     8b4:	e003      	b.n	8be <delay+0x1e>
     8b6:	683b      	ldr	r3, [r7, #0]
     8b8:	f103 33ff 	add.w	r3, r3, #4294967295
     8bc:	603b      	str	r3, [r7, #0]
     8be:	683b      	ldr	r3, [r7, #0]
     8c0:	2b00      	cmp	r3, #0
     8c2:	dcf8      	bgt.n	8b6 <delay+0x16>
}

void delay (void)
{
    int x,i;
    for (x = 0xfff; x > 0; x--)
     8c4:	687b      	ldr	r3, [r7, #4]
     8c6:	f103 33ff 	add.w	r3, r3, #4294967295
     8ca:	607b      	str	r3, [r7, #4]
     8cc:	687b      	ldr	r3, [r7, #4]
     8ce:	2b00      	cmp	r3, #0
     8d0:	dced      	bgt.n	8ae <delay+0xe>
        for (i = 0xffff; i > 0; i--);
    
}
     8d2:	f107 070c 	add.w	r7, r7, #12
     8d6:	46bd      	mov	sp, r7
     8d8:	bc80      	pop	{r7}
     8da:	4770      	bx	lr

000008dc <ADC0_IRQHandler>:
 * \param  void
 *
 * \return void
 */
void Default_Handler(void)
{
     8dc:	b480      	push	{r7}
     8de:	af00      	add	r7, sp, #0
  while (1);
     8e0:	e7fe      	b.n	8e0 <ADC0_IRQHandler+0x4>
     8e2:	bf00      	nop

000008e4 <Reset_Handler>:
 * \param  void
 *
 * \return void
 */
void Reset_Handler(void)
{
     8e4:	b580      	push	{r7, lr}
     8e6:	b082      	sub	sp, #8
     8e8:	af00      	add	r7, sp, #0
  unsigned char *source;
  unsigned char *destination;

  /* watchdog disable */
  *((volatile unsigned short *)0x4005200E) = 0xC520;
     8ea:	f242 030e 	movw	r3, #8206	; 0x200e
     8ee:	f2c4 0305 	movt	r3, #16389	; 0x4005
     8f2:	f24c 5220 	movw	r2, #50464	; 0xc520
     8f6:	801a      	strh	r2, [r3, #0]
  *((volatile unsigned short *)0x4005200E) = 0xD928;
     8f8:	f242 030e 	movw	r3, #8206	; 0x200e
     8fc:	f2c4 0305 	movt	r3, #16389	; 0x4005
     900:	f64d 1228 	movw	r2, #55592	; 0xd928
     904:	801a      	strh	r2, [r3, #0]
  *((volatile unsigned short *)0x40052000) = 0x01D2;
     906:	f44f 5300 	mov.w	r3, #8192	; 0x2000
     90a:	f2c4 0305 	movt	r3, #16389	; 0x4005
     90e:	f44f 72e9 	mov.w	r2, #466	; 0x1d2
     912:	801a      	strh	r2, [r3, #0]

  /* copy data values from ROM to RAM */
  source = (unsigned char *)&_etext;
     914:	f641 636c 	movw	r3, #7788	; 0x1e6c
     918:	f2c0 0300 	movt	r3, #0
     91c:	607b      	str	r3, [r7, #4]
  destination = (unsigned char *)&_sdata;
     91e:	f240 0300 	movw	r3, #0
     922:	f6c1 73ff 	movt	r3, #8191	; 0x1fff
     926:	603b      	str	r3, [r7, #0]
  while (destination < (unsigned char*)&_edata) {
     928:	e00b      	b.n	942 <Reset_Handler+0x5e>
    *(destination++) = *(source++);
     92a:	687b      	ldr	r3, [r7, #4]
     92c:	781a      	ldrb	r2, [r3, #0]
     92e:	683b      	ldr	r3, [r7, #0]
     930:	701a      	strb	r2, [r3, #0]
     932:	683b      	ldr	r3, [r7, #0]
     934:	f103 0301 	add.w	r3, r3, #1
     938:	603b      	str	r3, [r7, #0]
     93a:	687b      	ldr	r3, [r7, #4]
     93c:	f103 0301 	add.w	r3, r3, #1
     940:	607b      	str	r3, [r7, #4]
  *((volatile unsigned short *)0x40052000) = 0x01D2;

  /* copy data values from ROM to RAM */
  source = (unsigned char *)&_etext;
  destination = (unsigned char *)&_sdata;
  while (destination < (unsigned char*)&_edata) {
     942:	683a      	ldr	r2, [r7, #0]
     944:	f240 0314 	movw	r3, #20
     948:	f6c1 73ff 	movt	r3, #8191	; 0x1fff
     94c:	429a      	cmp	r2, r3
     94e:	d3ec      	bcc.n	92a <Reset_Handler+0x46>
    *(destination++) = *(source++);
  }

  /* clear bss section */
  source = (unsigned char *)&_sbss;
     950:	f240 0314 	movw	r3, #20
     954:	f6c1 73ff 	movt	r3, #8191	; 0x1fff
     958:	607b      	str	r3, [r7, #4]
  destination = (unsigned char *)&_ebss;
     95a:	f240 036c 	movw	r3, #108	; 0x6c
     95e:	f6c1 73ff 	movt	r3, #8191	; 0x1fff
     962:	603b      	str	r3, [r7, #0]
  while (source < destination ) {
     964:	e007      	b.n	976 <Reset_Handler+0x92>
    *source++ = 0;
     966:	687b      	ldr	r3, [r7, #4]
     968:	f04f 0200 	mov.w	r2, #0
     96c:	701a      	strb	r2, [r3, #0]
     96e:	687b      	ldr	r3, [r7, #4]
     970:	f103 0301 	add.w	r3, r3, #1
     974:	607b      	str	r3, [r7, #4]
  }

  /* clear bss section */
  source = (unsigned char *)&_sbss;
  destination = (unsigned char *)&_ebss;
  while (source < destination ) {
     976:	687a      	ldr	r2, [r7, #4]
     978:	683b      	ldr	r3, [r7, #0]
     97a:	429a      	cmp	r2, r3
     97c:	d3f3      	bcc.n	966 <Reset_Handler+0x82>
    *source++ = 0;
  }
 //进入系统初始化函数
  SystemInit();
     97e:	f000 f803 	bl	988 <SystemInit>
 //进入用户函数
  main();
     982:	f7ff ff3d 	bl	800 <main>

  while(1);
     986:	e7fe      	b.n	986 <Reset_Handler+0xa2>

00000988 <SystemInit>:
 * \param  void
 *
 * \return void
 */
void SystemInit(void)
{
     988:	b580      	push	{r7, lr}
     98a:	af00      	add	r7, sp, #0
  //使能所有IO口时钟
  SIM_SCGC5 |= (SIM_SCGC5_PORTA_MASK | SIM_SCGC5_PORTB_MASK
     98c:	f44f 43e0 	mov.w	r3, #28672	; 0x7000
     990:	f2c4 0304 	movt	r3, #16388	; 0x4004
     994:	f44f 42e0 	mov.w	r2, #28672	; 0x7000
     998:	f2c4 0204 	movt	r2, #16388	; 0x4004
     99c:	f502 5281 	add.w	r2, r2, #4128	; 0x1020
     9a0:	f102 0218 	add.w	r2, r2, #24
     9a4:	6812      	ldr	r2, [r2, #0]
     9a6:	f442 5278 	orr.w	r2, r2, #15872	; 0x3e00
     9aa:	f503 5381 	add.w	r3, r3, #4128	; 0x1020
     9ae:	f103 0318 	add.w	r3, r3, #24
     9b2:	601a      	str	r2, [r3, #0]
              | SIM_SCGC5_PORTC_MASK | SIM_SCGC5_PORTD_MASK
              | SIM_SCGC5_PORTE_MASK);
  //初始化各部分时钟：系统内核主频、总线时钟、FlexBus时钟、Flash时钟
  LPLD_PLL_Setup(CORE_CLK_MHZ);
     9b4:	f04f 0064 	mov.w	r0, #100	; 0x64
     9b8:	f000 fbf2 	bl	11a0 <LPLD_PLL_Setup>
  
  //更新内核主频
  SystemCoreClockUpdate();
     9bc:	f000 f85c 	bl	a78 <SystemCoreClockUpdate>
  
  //获取各部分时钟
  g_core_clock = SystemCoreClock;
     9c0:	f240 0300 	movw	r3, #0
     9c4:	f6c1 73ff 	movt	r3, #8191	; 0x1fff
     9c8:	681a      	ldr	r2, [r3, #0]
     9ca:	f240 0304 	movw	r3, #4
     9ce:	f6c1 73ff 	movt	r3, #8191	; 0x1fff
     9d2:	601a      	str	r2, [r3, #0]
  g_bus_clock = g_core_clock / ((uint32_t)((SIM_CLKDIV1 & SIM_CLKDIV1_OUTDIV2_MASK) >> SIM_CLKDIV1_OUTDIV2_SHIFT)+ 1u);
     9d4:	f240 0304 	movw	r3, #4
     9d8:	f6c1 73ff 	movt	r3, #8191	; 0x1fff
     9dc:	681a      	ldr	r2, [r3, #0]
     9de:	f44f 43e0 	mov.w	r3, #28672	; 0x7000
     9e2:	f2c4 0304 	movt	r3, #16388	; 0x4004
     9e6:	f503 5382 	add.w	r3, r3, #4160	; 0x1040
     9ea:	f103 0304 	add.w	r3, r3, #4
     9ee:	681b      	ldr	r3, [r3, #0]
     9f0:	f003 6370 	and.w	r3, r3, #251658240	; 0xf000000
     9f4:	ea4f 6313 	mov.w	r3, r3, lsr #24
     9f8:	f103 0301 	add.w	r3, r3, #1
     9fc:	fbb2 f2f3 	udiv	r2, r2, r3
     a00:	f240 0308 	movw	r3, #8
     a04:	f6c1 73ff 	movt	r3, #8191	; 0x1fff
     a08:	601a      	str	r2, [r3, #0]
  g_flexbus_clock =  g_core_clock / ((uint32_t)((SIM_CLKDIV1 & SIM_CLKDIV1_OUTDIV3_MASK) >> SIM_CLKDIV1_OUTDIV3_SHIFT)+ 1u);
     a0a:	f240 0304 	movw	r3, #4
     a0e:	f6c1 73ff 	movt	r3, #8191	; 0x1fff
     a12:	681a      	ldr	r2, [r3, #0]
     a14:	f44f 43e0 	mov.w	r3, #28672	; 0x7000
     a18:	f2c4 0304 	movt	r3, #16388	; 0x4004
     a1c:	f503 5382 	add.w	r3, r3, #4160	; 0x1040
     a20:	f103 0304 	add.w	r3, r3, #4
     a24:	681b      	ldr	r3, [r3, #0]
     a26:	f403 0370 	and.w	r3, r3, #15728640	; 0xf00000
     a2a:	ea4f 5313 	mov.w	r3, r3, lsr #20
     a2e:	f103 0301 	add.w	r3, r3, #1
     a32:	fbb2 f2f3 	udiv	r2, r2, r3
     a36:	f240 0310 	movw	r3, #16
     a3a:	f6c1 73ff 	movt	r3, #8191	; 0x1fff
     a3e:	601a      	str	r2, [r3, #0]
  g_flash_clock =  g_core_clock / ((uint32_t)((SIM_CLKDIV1 & SIM_CLKDIV1_OUTDIV4_MASK) >> SIM_CLKDIV1_OUTDIV4_SHIFT)+ 1u);
     a40:	f240 0304 	movw	r3, #4
     a44:	f6c1 73ff 	movt	r3, #8191	; 0x1fff
     a48:	681a      	ldr	r2, [r3, #0]
     a4a:	f44f 43e0 	mov.w	r3, #28672	; 0x7000
     a4e:	f2c4 0304 	movt	r3, #16388	; 0x4004
     a52:	f503 5382 	add.w	r3, r3, #4160	; 0x1040
     a56:	f103 0304 	add.w	r3, r3, #4
     a5a:	681b      	ldr	r3, [r3, #0]
     a5c:	f403 2370 	and.w	r3, r3, #983040	; 0xf0000
     a60:	ea4f 4313 	mov.w	r3, r3, lsr #16
     a64:	f103 0301 	add.w	r3, r3, #1
     a68:	fbb2 f2f3 	udiv	r2, r2, r3
     a6c:	f240 030c 	movw	r3, #12
     a70:	f6c1 73ff 	movt	r3, #8191	; 0x1fff
     a74:	601a      	str	r2, [r3, #0]
 
}
     a76:	bd80      	pop	{r7, pc}

00000a78 <SystemCoreClockUpdate>:
 *
 * @brief  更新全局变量SystemCoreClock的值，以便获取最新的系统内核频率。
 *         
 */
void SystemCoreClockUpdate (void) 
{
     a78:	b480      	push	{r7}
     a7a:	b083      	sub	sp, #12
     a7c:	af00      	add	r7, sp, #0
    uint32_t temp;
    temp =  CPU_XTAL_CLK_HZ *((uint32_t)(MCG_C6 & MCG_C6_VDIV_MASK) + 16u );
     a7e:	f44f 4380 	mov.w	r3, #16384	; 0x4000
     a82:	f2c4 0306 	movt	r3, #16390	; 0x4006
     a86:	795b      	ldrb	r3, [r3, #5]
     a88:	b2db      	uxtb	r3, r3
     a8a:	f003 021f 	and.w	r2, r3, #31
     a8e:	f24f 0380 	movw	r3, #61568	; 0xf080
     a92:	f2c0 23fa 	movt	r3, #762	; 0x2fa
     a96:	fb03 f202 	mul.w	r2, r3, r2
     a9a:	f44f 6300 	mov.w	r3, #2048	; 0x800
     a9e:	f6c2 73af 	movt	r3, #12207	; 0x2faf
     aa2:	18d3      	adds	r3, r2, r3
     aa4:	607b      	str	r3, [r7, #4]
    temp = (uint32_t)(temp/((uint32_t)(MCG_C5 & MCG_C5_PRDIV_MASK) +1u ))/2;
     aa6:	f44f 4380 	mov.w	r3, #16384	; 0x4000
     aaa:	f2c4 0306 	movt	r3, #16390	; 0x4006
     aae:	791b      	ldrb	r3, [r3, #4]
     ab0:	b2db      	uxtb	r3, r3
     ab2:	f003 0307 	and.w	r3, r3, #7
     ab6:	f103 0301 	add.w	r3, r3, #1
     aba:	687a      	ldr	r2, [r7, #4]
     abc:	fbb2 f3f3 	udiv	r3, r2, r3
     ac0:	ea4f 0353 	mov.w	r3, r3, lsr #1
     ac4:	607b      	str	r3, [r7, #4]
    SystemCoreClock = temp;
     ac6:	f240 0300 	movw	r3, #0
     aca:	f6c1 73ff 	movt	r3, #8191	; 0x1fff
     ace:	687a      	ldr	r2, [r7, #4]
     ad0:	601a      	str	r2, [r3, #0]
}
     ad2:	f107 070c 	add.w	r7, r7, #12
     ad6:	46bd      	mov	sp, r7
     ad8:	bc80      	pop	{r7}
     ada:	4770      	bx	lr

00000adc <enable_irq>:
/*
 * 使能中断
 */

void enable_irq (int irq)
{
     adc:	b480      	push	{r7}
     ade:	b085      	sub	sp, #20
     ae0:	af00      	add	r7, sp, #0
     ae2:	6078      	str	r0, [r7, #4]
    int div;
    if (irq > 105)
     ae4:	687b      	ldr	r3, [r7, #4]
     ae6:	2b69      	cmp	r3, #105	; 0x69
     ae8:	dd02      	ble.n	af0 <enable_irq+0x14>
        irq = 105;
     aea:	f04f 0369 	mov.w	r3, #105	; 0x69
     aee:	607b      	str	r3, [r7, #4]
    div = irq / 32;
     af0:	687b      	ldr	r3, [r7, #4]
     af2:	2b00      	cmp	r3, #0
     af4:	da01      	bge.n	afa <enable_irq+0x1e>
     af6:	f103 031f 	add.w	r3, r3, #31
     afa:	ea4f 1363 	mov.w	r3, r3, asr #5
     afe:	60fb      	str	r3, [r7, #12]
    switch (div)
     b00:	68fb      	ldr	r3, [r7, #12]
     b02:	2b03      	cmp	r3, #3
     b04:	f200 80a8 	bhi.w	c58 <enable_irq+0x17c>
     b08:	a201      	add	r2, pc, #4	; (adr r2, b10 <enable_irq+0x34>)
     b0a:	f852 f023 	ldr.w	pc, [r2, r3, lsl #2]
     b0e:	bf00      	nop
     b10:	00000b21 	andeq	r0, r0, r1, lsr #22
     b14:	00000b6f 	andeq	r0, r0, pc, ror #22
     b18:	00000bbd 			; <UNDEFINED> instruction: 0x00000bbd
     b1c:	00000c0b 	andeq	r0, r0, fp, lsl #24
    {
        case 0x0:
            NVICICPR0 |= 1 << (irq & 0x1F);
     b20:	f44f 4361 	mov.w	r3, #57600	; 0xe100
     b24:	f2ce 0300 	movt	r3, #57344	; 0xe000
     b28:	f44f 4261 	mov.w	r2, #57600	; 0xe100
     b2c:	f2ce 0200 	movt	r2, #57344	; 0xe000
     b30:	f8d2 1180 	ldr.w	r1, [r2, #384]	; 0x180
     b34:	687a      	ldr	r2, [r7, #4]
     b36:	f002 021f 	and.w	r2, r2, #31
     b3a:	f04f 0001 	mov.w	r0, #1
     b3e:	fa00 f202 	lsl.w	r2, r0, r2
     b42:	430a      	orrs	r2, r1
     b44:	f8c3 2180 	str.w	r2, [r3, #384]	; 0x180
            NVICISER0 |= 1 << (irq & 0x1F);
     b48:	f44f 4361 	mov.w	r3, #57600	; 0xe100
     b4c:	f2ce 0300 	movt	r3, #57344	; 0xe000
     b50:	f44f 4261 	mov.w	r2, #57600	; 0xe100
     b54:	f2ce 0200 	movt	r2, #57344	; 0xe000
     b58:	6811      	ldr	r1, [r2, #0]
     b5a:	687a      	ldr	r2, [r7, #4]
     b5c:	f002 021f 	and.w	r2, r2, #31
     b60:	f04f 0001 	mov.w	r0, #1
     b64:	fa00 f202 	lsl.w	r2, r0, r2
     b68:	430a      	orrs	r2, r1
     b6a:	601a      	str	r2, [r3, #0]
            break;
     b6c:	e074      	b.n	c58 <enable_irq+0x17c>
        case 0x1:
            NVICICPR1 |= 1 << (irq & 0x1F);
     b6e:	f44f 4361 	mov.w	r3, #57600	; 0xe100
     b72:	f2ce 0300 	movt	r3, #57344	; 0xe000
     b76:	f44f 4261 	mov.w	r2, #57600	; 0xe100
     b7a:	f2ce 0200 	movt	r2, #57344	; 0xe000
     b7e:	f8d2 1184 	ldr.w	r1, [r2, #388]	; 0x184
     b82:	687a      	ldr	r2, [r7, #4]
     b84:	f002 021f 	and.w	r2, r2, #31
     b88:	f04f 0001 	mov.w	r0, #1
     b8c:	fa00 f202 	lsl.w	r2, r0, r2
     b90:	430a      	orrs	r2, r1
     b92:	f8c3 2184 	str.w	r2, [r3, #388]	; 0x184
            NVICISER1 |= 1 << (irq & 0x1F);
     b96:	f44f 4361 	mov.w	r3, #57600	; 0xe100
     b9a:	f2ce 0300 	movt	r3, #57344	; 0xe000
     b9e:	f44f 4261 	mov.w	r2, #57600	; 0xe100
     ba2:	f2ce 0200 	movt	r2, #57344	; 0xe000
     ba6:	6851      	ldr	r1, [r2, #4]
     ba8:	687a      	ldr	r2, [r7, #4]
     baa:	f002 021f 	and.w	r2, r2, #31
     bae:	f04f 0001 	mov.w	r0, #1
     bb2:	fa00 f202 	lsl.w	r2, r0, r2
     bb6:	430a      	orrs	r2, r1
     bb8:	605a      	str	r2, [r3, #4]
            break;
     bba:	e04d      	b.n	c58 <enable_irq+0x17c>
        case 0x2:
            NVICICPR2 |= 1 << (irq & 0x1F);
     bbc:	f44f 4361 	mov.w	r3, #57600	; 0xe100
     bc0:	f2ce 0300 	movt	r3, #57344	; 0xe000
     bc4:	f44f 4261 	mov.w	r2, #57600	; 0xe100
     bc8:	f2ce 0200 	movt	r2, #57344	; 0xe000
     bcc:	f8d2 1188 	ldr.w	r1, [r2, #392]	; 0x188
     bd0:	687a      	ldr	r2, [r7, #4]
     bd2:	f002 021f 	and.w	r2, r2, #31
     bd6:	f04f 0001 	mov.w	r0, #1
     bda:	fa00 f202 	lsl.w	r2, r0, r2
     bde:	430a      	orrs	r2, r1
     be0:	f8c3 2188 	str.w	r2, [r3, #392]	; 0x188
            NVICISER2 |= 1 << (irq & 0x1F);
     be4:	f44f 4361 	mov.w	r3, #57600	; 0xe100
     be8:	f2ce 0300 	movt	r3, #57344	; 0xe000
     bec:	f44f 4261 	mov.w	r2, #57600	; 0xe100
     bf0:	f2ce 0200 	movt	r2, #57344	; 0xe000
     bf4:	6891      	ldr	r1, [r2, #8]
     bf6:	687a      	ldr	r2, [r7, #4]
     bf8:	f002 021f 	and.w	r2, r2, #31
     bfc:	f04f 0001 	mov.w	r0, #1
     c00:	fa00 f202 	lsl.w	r2, r0, r2
     c04:	430a      	orrs	r2, r1
     c06:	609a      	str	r2, [r3, #8]
            break;
     c08:	e026      	b.n	c58 <enable_irq+0x17c>
        case 0x3:
            NVICICPR3 |= 1 << (irq & 0x1F);
     c0a:	f44f 4361 	mov.w	r3, #57600	; 0xe100
     c0e:	f2ce 0300 	movt	r3, #57344	; 0xe000
     c12:	f44f 4261 	mov.w	r2, #57600	; 0xe100
     c16:	f2ce 0200 	movt	r2, #57344	; 0xe000
     c1a:	f8d2 118c 	ldr.w	r1, [r2, #396]	; 0x18c
     c1e:	687a      	ldr	r2, [r7, #4]
     c20:	f002 021f 	and.w	r2, r2, #31
     c24:	f04f 0001 	mov.w	r0, #1
     c28:	fa00 f202 	lsl.w	r2, r0, r2
     c2c:	430a      	orrs	r2, r1
     c2e:	f8c3 218c 	str.w	r2, [r3, #396]	; 0x18c
            NVICISER3 |= 1 << (irq & 0x1F);
     c32:	f44f 4361 	mov.w	r3, #57600	; 0xe100
     c36:	f2ce 0300 	movt	r3, #57344	; 0xe000
     c3a:	f44f 4261 	mov.w	r2, #57600	; 0xe100
     c3e:	f2ce 0200 	movt	r2, #57344	; 0xe000
     c42:	68d1      	ldr	r1, [r2, #12]
     c44:	687a      	ldr	r2, [r7, #4]
     c46:	f002 021f 	and.w	r2, r2, #31
     c4a:	f04f 0001 	mov.w	r0, #1
     c4e:	fa00 f202 	lsl.w	r2, r0, r2
     c52:	430a      	orrs	r2, r1
     c54:	60da      	str	r2, [r3, #12]
            break;
     c56:	bf00      	nop
    }
}
     c58:	f107 0714 	add.w	r7, r7, #20
     c5c:	46bd      	mov	sp, r7
     c5e:	bc80      	pop	{r7}
     c60:	4770      	bx	lr
     c62:	bf00      	nop

00000c64 <disable_irq>:
/*
 * 关闭中断
 */

void disable_irq (int irq)
{
     c64:	b480      	push	{r7}
     c66:	b085      	sub	sp, #20
     c68:	af00      	add	r7, sp, #0
     c6a:	6078      	str	r0, [r7, #4]
    int div;
    if (irq > 105)
     c6c:	687b      	ldr	r3, [r7, #4]
     c6e:	2b69      	cmp	r3, #105	; 0x69
     c70:	dd02      	ble.n	c78 <disable_irq+0x14>
        irq = 105;
     c72:	f04f 0369 	mov.w	r3, #105	; 0x69
     c76:	607b      	str	r3, [r7, #4]
    div = irq / 32;
     c78:	687b      	ldr	r3, [r7, #4]
     c7a:	2b00      	cmp	r3, #0
     c7c:	da01      	bge.n	c82 <disable_irq+0x1e>
     c7e:	f103 031f 	add.w	r3, r3, #31
     c82:	ea4f 1363 	mov.w	r3, r3, asr #5
     c86:	60fb      	str	r3, [r7, #12]
    switch (div)
     c88:	68fb      	ldr	r3, [r7, #12]
     c8a:	2b03      	cmp	r3, #3
     c8c:	d85e      	bhi.n	d4c <disable_irq+0xe8>
     c8e:	a201      	add	r2, pc, #4	; (adr r2, c94 <disable_irq+0x30>)
     c90:	f852 f023 	ldr.w	pc, [r2, r3, lsl #2]
     c94:	00000ca5 	andeq	r0, r0, r5, lsr #25
     c98:	00000ccf 	andeq	r0, r0, pc, asr #25
     c9c:	00000cf9 	strdeq	r0, [r0], -r9
     ca0:	00000d23 	andeq	r0, r0, r3, lsr #26
    {
        case 0x0:
            NVICICPR0 |= 1 << (irq & 0x1F);
     ca4:	f44f 4361 	mov.w	r3, #57600	; 0xe100
     ca8:	f2ce 0300 	movt	r3, #57344	; 0xe000
     cac:	f44f 4261 	mov.w	r2, #57600	; 0xe100
     cb0:	f2ce 0200 	movt	r2, #57344	; 0xe000
     cb4:	f8d2 1180 	ldr.w	r1, [r2, #384]	; 0x180
     cb8:	687a      	ldr	r2, [r7, #4]
     cba:	f002 021f 	and.w	r2, r2, #31
     cbe:	f04f 0001 	mov.w	r0, #1
     cc2:	fa00 f202 	lsl.w	r2, r0, r2
     cc6:	430a      	orrs	r2, r1
     cc8:	f8c3 2180 	str.w	r2, [r3, #384]	; 0x180
            break;
     ccc:	e03e      	b.n	d4c <disable_irq+0xe8>
        case 0x1:
            NVICICPR1 |= 1 << (irq & 0x1F);
     cce:	f44f 4361 	mov.w	r3, #57600	; 0xe100
     cd2:	f2ce 0300 	movt	r3, #57344	; 0xe000
     cd6:	f44f 4261 	mov.w	r2, #57600	; 0xe100
     cda:	f2ce 0200 	movt	r2, #57344	; 0xe000
     cde:	f8d2 1184 	ldr.w	r1, [r2, #388]	; 0x184
     ce2:	687a      	ldr	r2, [r7, #4]
     ce4:	f002 021f 	and.w	r2, r2, #31
     ce8:	f04f 0001 	mov.w	r0, #1
     cec:	fa00 f202 	lsl.w	r2, r0, r2
     cf0:	430a      	orrs	r2, r1
     cf2:	f8c3 2184 	str.w	r2, [r3, #388]	; 0x184
            break;
     cf6:	e029      	b.n	d4c <disable_irq+0xe8>
        case 0x2:
            NVICICPR2 |= 1 << (irq & 0x1F);
     cf8:	f44f 4361 	mov.w	r3, #57600	; 0xe100
     cfc:	f2ce 0300 	movt	r3, #57344	; 0xe000
     d00:	f44f 4261 	mov.w	r2, #57600	; 0xe100
     d04:	f2ce 0200 	movt	r2, #57344	; 0xe000
     d08:	f8d2 1188 	ldr.w	r1, [r2, #392]	; 0x188
     d0c:	687a      	ldr	r2, [r7, #4]
     d0e:	f002 021f 	and.w	r2, r2, #31
     d12:	f04f 0001 	mov.w	r0, #1
     d16:	fa00 f202 	lsl.w	r2, r0, r2
     d1a:	430a      	orrs	r2, r1
     d1c:	f8c3 2188 	str.w	r2, [r3, #392]	; 0x188
            break;
     d20:	e014      	b.n	d4c <disable_irq+0xe8>
        case 0x3:
            NVICICPR3 |= 1 << (irq & 0x1F);
     d22:	f44f 4361 	mov.w	r3, #57600	; 0xe100
     d26:	f2ce 0300 	movt	r3, #57344	; 0xe000
     d2a:	f44f 4261 	mov.w	r2, #57600	; 0xe100
     d2e:	f2ce 0200 	movt	r2, #57344	; 0xe000
     d32:	f8d2 118c 	ldr.w	r1, [r2, #396]	; 0x18c
     d36:	687a      	ldr	r2, [r7, #4]
     d38:	f002 021f 	and.w	r2, r2, #31
     d3c:	f04f 0001 	mov.w	r0, #1
     d40:	fa00 f202 	lsl.w	r2, r0, r2
     d44:	430a      	orrs	r2, r1
     d46:	f8c3 218c 	str.w	r2, [r3, #396]	; 0x18c
            break;
     d4a:	bf00      	nop
    }
}
     d4c:	f107 0714 	add.w	r7, r7, #20
     d50:	46bd      	mov	sp, r7
     d52:	bc80      	pop	{r7}
     d54:	4770      	bx	lr
     d56:	bf00      	nop

00000d58 <MOS_GPIO_Init>:
 * \param gpio_init_structure
 * \return 0--配置失败
 *         1--配置成功
 */
int8 MOS_GPIO_Init(GPIO_InitTypeDef gpio_init_structure)
{
     d58:	b084      	sub	sp, #16
     d5a:	b480      	push	{r7}
     d5c:	b087      	sub	sp, #28
     d5e:	af00      	add	r7, sp, #0
     d60:	f107 0c20 	add.w	ip, r7, #32
     d64:	e88c 000f 	stmia.w	ip, {r0, r1, r2, r3}
    uint8 i;

    PORT_MemMapPtr portx;
    uint32 pcr = PORT_PCR_MUX(1)
                |gpio_init_structure.GPIO_PinControl;
     d68:	6abb      	ldr	r3, [r7, #40]	; 0x28
int8 MOS_GPIO_Init(GPIO_InitTypeDef gpio_init_structure)
{
    uint8 i;

    PORT_MemMapPtr portx;
    uint32 pcr = PORT_PCR_MUX(1)
     d6a:	f443 7380 	orr.w	r3, r3, #256	; 0x100
     d6e:	60fb      	str	r3, [r7, #12]
                |gpio_init_structure.GPIO_PinControl;
    GPIO_MemMapPtr ptx = gpio_init_structure.GPIO_PTx;
     d70:	6a3b      	ldr	r3, [r7, #32]
     d72:	60bb      	str	r3, [r7, #8]
    uint32 pins = gpio_init_structure.GPIO_Pins;
     d74:	6a7b      	ldr	r3, [r7, #36]	; 0x24
     d76:	607b      	str	r3, [r7, #4]
    uint8 dir = gpio_init_structure.GPIO_Dir;
     d78:	f897 302c 	ldrb.w	r3, [r7, #44]	; 0x2c
     d7c:	70fb      	strb	r3, [r7, #3]
    uint8 output = gpio_init_structure.GPIO_Output;
     d7e:	f897 302d 	ldrb.w	r3, [r7, #45]	; 0x2d
     d82:	70bb      	strb	r3, [r7, #2]
    //GPIO_ISR_CALLBACK isr_func = gpio_init_structure.GPIO_Isr;
    

    if  (ptx == PTA)
     d84:	68ba      	ldr	r2, [r7, #8]
     d86:	f44f 4370 	mov.w	r3, #61440	; 0xf000
     d8a:	f2c4 030f 	movt	r3, #16399	; 0x400f
     d8e:	429a      	cmp	r2, r3
     d90:	d105      	bne.n	d9e <MOS_GPIO_Init+0x46>
        portx = PORTA_BASE_PTR;
     d92:	f44f 4310 	mov.w	r3, #36864	; 0x9000
     d96:	f2c4 0304 	movt	r3, #16388	; 0x4004
     d9a:	613b      	str	r3, [r7, #16]
     d9c:	e043      	b.n	e26 <MOS_GPIO_Init+0xce>
    else if (ptx == PTB)
     d9e:	68ba      	ldr	r2, [r7, #8]
     da0:	f24f 0340 	movw	r3, #61504	; 0xf040
     da4:	f2c4 030f 	movt	r3, #16399	; 0x400f
     da8:	429a      	cmp	r2, r3
     daa:	d105      	bne.n	db8 <MOS_GPIO_Init+0x60>
        portx = PORTB_BASE_PTR;
     dac:	f44f 4320 	mov.w	r3, #40960	; 0xa000
     db0:	f2c4 0304 	movt	r3, #16388	; 0x4004
     db4:	613b      	str	r3, [r7, #16]
     db6:	e036      	b.n	e26 <MOS_GPIO_Init+0xce>
    else if (ptx == PTC)
     db8:	68ba      	ldr	r2, [r7, #8]
     dba:	f24f 0380 	movw	r3, #61568	; 0xf080
     dbe:	f2c4 030f 	movt	r3, #16399	; 0x400f
     dc2:	429a      	cmp	r2, r3
     dc4:	d105      	bne.n	dd2 <MOS_GPIO_Init+0x7a>
        portx = PORTC_BASE_PTR;
     dc6:	f44f 4330 	mov.w	r3, #45056	; 0xb000
     dca:	f2c4 0304 	movt	r3, #16388	; 0x4004
     dce:	613b      	str	r3, [r7, #16]
     dd0:	e029      	b.n	e26 <MOS_GPIO_Init+0xce>
    else if (ptx == PTD)
     dd2:	68ba      	ldr	r2, [r7, #8]
     dd4:	f24f 03c0 	movw	r3, #61632	; 0xf0c0
     dd8:	f2c4 030f 	movt	r3, #16399	; 0x400f
     ddc:	429a      	cmp	r2, r3
     dde:	d105      	bne.n	dec <MOS_GPIO_Init+0x94>
        portx = PORTD_BASE_PTR;
     de0:	f44f 4340 	mov.w	r3, #49152	; 0xc000
     de4:	f2c4 0304 	movt	r3, #16388	; 0x4004
     de8:	613b      	str	r3, [r7, #16]
     dea:	e01c      	b.n	e26 <MOS_GPIO_Init+0xce>
    else if (ptx == PTE)
     dec:	68ba      	ldr	r2, [r7, #8]
     dee:	f44f 4371 	mov.w	r3, #61696	; 0xf100
     df2:	f2c4 030f 	movt	r3, #16399	; 0x400f
     df6:	429a      	cmp	r2, r3
     df8:	d105      	bne.n	e06 <MOS_GPIO_Init+0xae>
        portx = PORTE_BASE_PTR;
     dfa:	f44f 4350 	mov.w	r3, #53248	; 0xd000
     dfe:	f2c4 0304 	movt	r3, #16388	; 0x4004
     e02:	613b      	str	r3, [r7, #16]
     e04:	e00f      	b.n	e26 <MOS_GPIO_Init+0xce>
    else if (ptx == PTF)
     e06:	68ba      	ldr	r2, [r7, #8]
     e08:	f24f 1340 	movw	r3, #61760	; 0xf140
     e0c:	f2c4 030f 	movt	r3, #16399	; 0x400f
     e10:	429a      	cmp	r2, r3
     e12:	d105      	bne.n	e20 <MOS_GPIO_Init+0xc8>
        portx = PORTF_BASE_PTR;
     e14:	f44f 4360 	mov.w	r3, #57344	; 0xe000
     e18:	f2c4 0304 	movt	r3, #16388	; 0x4004
     e1c:	613b      	str	r3, [r7, #16]
     e1e:	e002      	b.n	e26 <MOS_GPIO_Init+0xce>
    else
        return 0;
     e20:	f04f 0300 	mov.w	r3, #0
     e24:	e032      	b.n	e8c <MOS_GPIO_Init+0x134>
    
    if (dir == DIR_OUTPUT)
     e26:	78fb      	ldrb	r3, [r7, #3]
     e28:	2b01      	cmp	r3, #1
     e2a:	d10d      	bne.n	e48 <MOS_GPIO_Init+0xf0>
    {
        ptx->PDDR = pins;
     e2c:	68bb      	ldr	r3, [r7, #8]
     e2e:	687a      	ldr	r2, [r7, #4]
     e30:	615a      	str	r2, [r3, #20]
        if (output == OUTPUT_H)
     e32:	78bb      	ldrb	r3, [r7, #2]
     e34:	2b01      	cmp	r3, #1
     e36:	d103      	bne.n	e40 <MOS_GPIO_Init+0xe8>
            ptx->PSOR = pins;
     e38:	68bb      	ldr	r3, [r7, #8]
     e3a:	687a      	ldr	r2, [r7, #4]
     e3c:	605a      	str	r2, [r3, #4]
     e3e:	e00b      	b.n	e58 <MOS_GPIO_Init+0x100>
        else
            ptx->PCOR = pins;
     e40:	68bb      	ldr	r3, [r7, #8]
     e42:	687a      	ldr	r2, [r7, #4]
     e44:	609a      	str	r2, [r3, #8]
     e46:	e007      	b.n	e58 <MOS_GPIO_Init+0x100>
    }
    else
    {
        ptx->PDDR &= ~(pins);
     e48:	68bb      	ldr	r3, [r7, #8]
     e4a:	695a      	ldr	r2, [r3, #20]
     e4c:	687b      	ldr	r3, [r7, #4]
     e4e:	ea6f 0303 	mvn.w	r3, r3
     e52:	401a      	ands	r2, r3
     e54:	68bb      	ldr	r3, [r7, #8]
     e56:	615a      	str	r2, [r3, #20]
    }
    //配置所选引脚的控制寄存器
    for (i =0; i < 32; i++)
     e58:	f04f 0300 	mov.w	r3, #0
     e5c:	75fb      	strb	r3, [r7, #23]
     e5e:	e010      	b.n	e82 <MOS_GPIO_Init+0x12a>
    {
        if (pins&(1ul<<i))
     e60:	7dfb      	ldrb	r3, [r7, #23]
     e62:	687a      	ldr	r2, [r7, #4]
     e64:	fa22 f303 	lsr.w	r3, r2, r3
     e68:	f003 0301 	and.w	r3, r3, #1
     e6c:	2b00      	cmp	r3, #0
     e6e:	d004      	beq.n	e7a <MOS_GPIO_Init+0x122>
            portx->PCR[i] = pcr;
     e70:	7dfa      	ldrb	r2, [r7, #23]
     e72:	693b      	ldr	r3, [r7, #16]
     e74:	68f9      	ldr	r1, [r7, #12]
     e76:	f843 1022 	str.w	r1, [r3, r2, lsl #2]
    else
    {
        ptx->PDDR &= ~(pins);
    }
    //配置所选引脚的控制寄存器
    for (i =0; i < 32; i++)
     e7a:	7dfb      	ldrb	r3, [r7, #23]
     e7c:	f103 0301 	add.w	r3, r3, #1
     e80:	75fb      	strb	r3, [r7, #23]
     e82:	7dfb      	ldrb	r3, [r7, #23]
     e84:	2b1f      	cmp	r3, #31
     e86:	d9eb      	bls.n	e60 <MOS_GPIO_Init+0x108>
    {
        if (pins&(1ul<<i))
            portx->PCR[i] = pcr;
    }

    return 1;
     e88:	f04f 0301 	mov.w	r3, #1
     e8c:	b25b      	sxtb	r3, r3

}
     e8e:	4618      	mov	r0, r3
     e90:	f107 071c 	add.w	r7, r7, #28
     e94:	46bd      	mov	sp, r7
     e96:	bc80      	pop	{r7}
     e98:	b004      	add	sp, #16
     e9a:	4770      	bx	lr

00000e9c <MOS_GPIO_EnableIrq>:
 *    0--配置错误
 *    1--配置成功
 *
 */
uint8 MOS_GPIO_EnableIrq(GPIO_InitTypeDef gpio_init_structure)
{
     e9c:	b084      	sub	sp, #16
     e9e:	b580      	push	{r7, lr}
     ea0:	b082      	sub	sp, #8
     ea2:	af00      	add	r7, sp, #0
     ea4:	f107 0c10 	add.w	ip, r7, #16
     ea8:	e88c 000f 	stmia.w	ip, {r0, r1, r2, r3}
    GPIO_MemMapPtr ptx = gpio_init_structure.GPIO_PTx;
     eac:	693b      	ldr	r3, [r7, #16]
     eae:	607b      	str	r3, [r7, #4]
    GPIO_ISR_CALLBACK isr_func = gpio_init_structure.GPIO_Isr;
     eb0:	6a3b      	ldr	r3, [r7, #32]
     eb2:	603b      	str	r3, [r7, #0]
    
    if (isr_func == NULL)
     eb4:	683b      	ldr	r3, [r7, #0]
     eb6:	2b00      	cmp	r3, #0
     eb8:	d102      	bne.n	ec0 <MOS_GPIO_EnableIrq+0x24>
        return 0;
     eba:	f04f 0300 	mov.w	r3, #0
     ebe:	e05e      	b.n	f7e <MOS_GPIO_EnableIrq+0xe2>
    if (ptx == PTA)
     ec0:	687a      	ldr	r2, [r7, #4]
     ec2:	f44f 4370 	mov.w	r3, #61440	; 0xf000
     ec6:	f2c4 030f 	movt	r3, #16399	; 0x400f
     eca:	429a      	cmp	r2, r3
     ecc:	d10a      	bne.n	ee4 <MOS_GPIO_EnableIrq+0x48>
    {
        enable_irq(87);
     ece:	f04f 0057 	mov.w	r0, #87	; 0x57
     ed2:	f7ff fe03 	bl	adc <enable_irq>
        GPIO_ISR[0] = isr_func;
     ed6:	f240 0328 	movw	r3, #40	; 0x28
     eda:	f6c1 73ff 	movt	r3, #8191	; 0x1fff
     ede:	683a      	ldr	r2, [r7, #0]
     ee0:	601a      	str	r2, [r3, #0]
     ee2:	e04a      	b.n	f7a <MOS_GPIO_EnableIrq+0xde>
    }
    else if (ptx == PTB)
     ee4:	687a      	ldr	r2, [r7, #4]
     ee6:	f24f 0340 	movw	r3, #61504	; 0xf040
     eea:	f2c4 030f 	movt	r3, #16399	; 0x400f
     eee:	429a      	cmp	r2, r3
     ef0:	d10a      	bne.n	f08 <MOS_GPIO_EnableIrq+0x6c>
    {
        enable_irq(88);
     ef2:	f04f 0058 	mov.w	r0, #88	; 0x58
     ef6:	f7ff fdf1 	bl	adc <enable_irq>
        GPIO_ISR[1] = isr_func;
     efa:	f240 0328 	movw	r3, #40	; 0x28
     efe:	f6c1 73ff 	movt	r3, #8191	; 0x1fff
     f02:	683a      	ldr	r2, [r7, #0]
     f04:	605a      	str	r2, [r3, #4]
     f06:	e038      	b.n	f7a <MOS_GPIO_EnableIrq+0xde>
    }
    else if (ptx == PTC)
     f08:	687a      	ldr	r2, [r7, #4]
     f0a:	f24f 0380 	movw	r3, #61568	; 0xf080
     f0e:	f2c4 030f 	movt	r3, #16399	; 0x400f
     f12:	429a      	cmp	r2, r3
     f14:	d10a      	bne.n	f2c <MOS_GPIO_EnableIrq+0x90>
    {
        enable_irq(89);
     f16:	f04f 0059 	mov.w	r0, #89	; 0x59
     f1a:	f7ff fddf 	bl	adc <enable_irq>
        GPIO_ISR[2] = isr_func;
     f1e:	f240 0328 	movw	r3, #40	; 0x28
     f22:	f6c1 73ff 	movt	r3, #8191	; 0x1fff
     f26:	683a      	ldr	r2, [r7, #0]
     f28:	609a      	str	r2, [r3, #8]
     f2a:	e026      	b.n	f7a <MOS_GPIO_EnableIrq+0xde>
    }
    else if (ptx == PTD)
     f2c:	687a      	ldr	r2, [r7, #4]
     f2e:	f24f 03c0 	movw	r3, #61632	; 0xf0c0
     f32:	f2c4 030f 	movt	r3, #16399	; 0x400f
     f36:	429a      	cmp	r2, r3
     f38:	d10a      	bne.n	f50 <MOS_GPIO_EnableIrq+0xb4>
    {
        enable_irq(90);
     f3a:	f04f 005a 	mov.w	r0, #90	; 0x5a
     f3e:	f7ff fdcd 	bl	adc <enable_irq>
        GPIO_ISR[3] = isr_func;
     f42:	f240 0328 	movw	r3, #40	; 0x28
     f46:	f6c1 73ff 	movt	r3, #8191	; 0x1fff
     f4a:	683a      	ldr	r2, [r7, #0]
     f4c:	60da      	str	r2, [r3, #12]
     f4e:	e014      	b.n	f7a <MOS_GPIO_EnableIrq+0xde>
    }
    else if (ptx == PTE)
     f50:	687a      	ldr	r2, [r7, #4]
     f52:	f44f 4371 	mov.w	r3, #61696	; 0xf100
     f56:	f2c4 030f 	movt	r3, #16399	; 0x400f
     f5a:	429a      	cmp	r2, r3
     f5c:	d10a      	bne.n	f74 <MOS_GPIO_EnableIrq+0xd8>
    {
        enable_irq(91);
     f5e:	f04f 005b 	mov.w	r0, #91	; 0x5b
     f62:	f7ff fdbb 	bl	adc <enable_irq>
        GPIO_ISR[4] = isr_func;
     f66:	f240 0328 	movw	r3, #40	; 0x28
     f6a:	f6c1 73ff 	movt	r3, #8191	; 0x1fff
     f6e:	683a      	ldr	r2, [r7, #0]
     f70:	611a      	str	r2, [r3, #16]
     f72:	e002      	b.n	f7a <MOS_GPIO_EnableIrq+0xde>
    }
    else
        return 0;
     f74:	f04f 0300 	mov.w	r3, #0
     f78:	e001      	b.n	f7e <MOS_GPIO_EnableIrq+0xe2>
    return 1;
     f7a:	f04f 0301 	mov.w	r3, #1
}
     f7e:	4618      	mov	r0, r3
     f80:	f107 0708 	add.w	r7, r7, #8
     f84:	46bd      	mov	sp, r7
     f86:	e8bd 4080 	ldmia.w	sp!, {r7, lr}
     f8a:	b004      	add	sp, #16
     f8c:	4770      	bx	lr
     f8e:	bf00      	nop

00000f90 <MOS_GPIO_DisableIrq>:
 *    0--配置错误
 *    1--配置成功
 *
 */
uint8 MOS_GPIO_DisableIrq(GPIO_InitTypeDef gpio_init_structure)
{
     f90:	b084      	sub	sp, #16
     f92:	b480      	push	{r7}
     f94:	b085      	sub	sp, #20
     f96:	af00      	add	r7, sp, #0
     f98:	f107 0c18 	add.w	ip, r7, #24
     f9c:	e88c 000f 	stmia.w	ip, {r0, r1, r2, r3}
    uint8 i;
    GPIO_MemMapPtr ptx = gpio_init_structure.GPIO_PTx;
     fa0:	69bb      	ldr	r3, [r7, #24]
     fa2:	607b      	str	r3, [r7, #4]
    PORT_MemMapPtr portx;
    uint32 pins = gpio_init_structure.GPIO_Pins;
     fa4:	69fb      	ldr	r3, [r7, #28]
     fa6:	603b      	str	r3, [r7, #0]
 
    if  (ptx == PTA)
     fa8:	687a      	ldr	r2, [r7, #4]
     faa:	f44f 4370 	mov.w	r3, #61440	; 0xf000
     fae:	f2c4 030f 	movt	r3, #16399	; 0x400f
     fb2:	429a      	cmp	r2, r3
     fb4:	d105      	bne.n	fc2 <MOS_GPIO_DisableIrq+0x32>
        portx = PORTA_BASE_PTR;
     fb6:	f44f 4310 	mov.w	r3, #36864	; 0x9000
     fba:	f2c4 0304 	movt	r3, #16388	; 0x4004
     fbe:	60bb      	str	r3, [r7, #8]
     fc0:	e043      	b.n	104a <MOS_GPIO_DisableIrq+0xba>
    else if (ptx == PTB)
     fc2:	687a      	ldr	r2, [r7, #4]
     fc4:	f24f 0340 	movw	r3, #61504	; 0xf040
     fc8:	f2c4 030f 	movt	r3, #16399	; 0x400f
     fcc:	429a      	cmp	r2, r3
     fce:	d105      	bne.n	fdc <MOS_GPIO_DisableIrq+0x4c>
        portx = PORTB_BASE_PTR;
     fd0:	f44f 4320 	mov.w	r3, #40960	; 0xa000
     fd4:	f2c4 0304 	movt	r3, #16388	; 0x4004
     fd8:	60bb      	str	r3, [r7, #8]
     fda:	e036      	b.n	104a <MOS_GPIO_DisableIrq+0xba>
    else if (ptx == PTC)
     fdc:	687a      	ldr	r2, [r7, #4]
     fde:	f24f 0380 	movw	r3, #61568	; 0xf080
     fe2:	f2c4 030f 	movt	r3, #16399	; 0x400f
     fe6:	429a      	cmp	r2, r3
     fe8:	d105      	bne.n	ff6 <MOS_GPIO_DisableIrq+0x66>
        portx = PORTC_BASE_PTR;
     fea:	f44f 4330 	mov.w	r3, #45056	; 0xb000
     fee:	f2c4 0304 	movt	r3, #16388	; 0x4004
     ff2:	60bb      	str	r3, [r7, #8]
     ff4:	e029      	b.n	104a <MOS_GPIO_DisableIrq+0xba>
    else if (ptx == PTD)
     ff6:	687a      	ldr	r2, [r7, #4]
     ff8:	f24f 03c0 	movw	r3, #61632	; 0xf0c0
     ffc:	f2c4 030f 	movt	r3, #16399	; 0x400f
    1000:	429a      	cmp	r2, r3
    1002:	d105      	bne.n	1010 <MOS_GPIO_DisableIrq+0x80>
        portx = PORTD_BASE_PTR;
    1004:	f44f 4340 	mov.w	r3, #49152	; 0xc000
    1008:	f2c4 0304 	movt	r3, #16388	; 0x4004
    100c:	60bb      	str	r3, [r7, #8]
    100e:	e01c      	b.n	104a <MOS_GPIO_DisableIrq+0xba>
    else if (ptx == PTE)
    1010:	687a      	ldr	r2, [r7, #4]
    1012:	f44f 4371 	mov.w	r3, #61696	; 0xf100
    1016:	f2c4 030f 	movt	r3, #16399	; 0x400f
    101a:	429a      	cmp	r2, r3
    101c:	d105      	bne.n	102a <MOS_GPIO_DisableIrq+0x9a>
        portx = PORTE_BASE_PTR;
    101e:	f44f 4350 	mov.w	r3, #53248	; 0xd000
    1022:	f2c4 0304 	movt	r3, #16388	; 0x4004
    1026:	60bb      	str	r3, [r7, #8]
    1028:	e00f      	b.n	104a <MOS_GPIO_DisableIrq+0xba>
    else if (ptx == PTF)
    102a:	687a      	ldr	r2, [r7, #4]
    102c:	f24f 1340 	movw	r3, #61760	; 0xf140
    1030:	f2c4 030f 	movt	r3, #16399	; 0x400f
    1034:	429a      	cmp	r2, r3
    1036:	d105      	bne.n	1044 <MOS_GPIO_DisableIrq+0xb4>
        portx = PORTF_BASE_PTR;
    1038:	f44f 4360 	mov.w	r3, #57344	; 0xe000
    103c:	f2c4 0304 	movt	r3, #16388	; 0x4004
    1040:	60bb      	str	r3, [r7, #8]
    1042:	e002      	b.n	104a <MOS_GPIO_DisableIrq+0xba>
    else
        return 0;
    1044:	f04f 0300 	mov.w	r3, #0
    1048:	e01e      	b.n	1088 <MOS_GPIO_DisableIrq+0xf8>
    //配置所选引脚的控制寄存器
    for (i =0; i < 32; i++)
    104a:	f04f 0300 	mov.w	r3, #0
    104e:	73fb      	strb	r3, [r7, #15]
    1050:	e015      	b.n	107e <MOS_GPIO_DisableIrq+0xee>
    {
        if (pins&(1ul<<i))
    1052:	7bfb      	ldrb	r3, [r7, #15]
    1054:	683a      	ldr	r2, [r7, #0]
    1056:	fa22 f303 	lsr.w	r3, r2, r3
    105a:	f003 0301 	and.w	r3, r3, #1
    105e:	2b00      	cmp	r3, #0
    1060:	d009      	beq.n	1076 <MOS_GPIO_DisableIrq+0xe6>
            portx->PCR[i] &= ~(PORT_PCR_IRQC_MASK);
    1062:	7bfa      	ldrb	r2, [r7, #15]
    1064:	7bf9      	ldrb	r1, [r7, #15]
    1066:	68bb      	ldr	r3, [r7, #8]
    1068:	f853 3021 	ldr.w	r3, [r3, r1, lsl #2]
    106c:	f423 2170 	bic.w	r1, r3, #983040	; 0xf0000
    1070:	68bb      	ldr	r3, [r7, #8]
    1072:	f843 1022 	str.w	r1, [r3, r2, lsl #2]
    else if (ptx == PTF)
        portx = PORTF_BASE_PTR;
    else
        return 0;
    //配置所选引脚的控制寄存器
    for (i =0; i < 32; i++)
    1076:	7bfb      	ldrb	r3, [r7, #15]
    1078:	f103 0301 	add.w	r3, r3, #1
    107c:	73fb      	strb	r3, [r7, #15]
    107e:	7bfb      	ldrb	r3, [r7, #15]
    1080:	2b1f      	cmp	r3, #31
    1082:	d9e6      	bls.n	1052 <MOS_GPIO_DisableIrq+0xc2>
    {
        if (pins&(1ul<<i))
            portx->PCR[i] &= ~(PORT_PCR_IRQC_MASK);
    }
    return 1;
    1084:	f04f 0301 	mov.w	r3, #1
}
    1088:	4618      	mov	r0, r3
    108a:	f107 0714 	add.w	r7, r7, #20
    108e:	46bd      	mov	sp, r7
    1090:	bc80      	pop	{r7}
    1092:	b004      	add	sp, #16
    1094:	4770      	bx	lr
    1096:	bf00      	nop

00001098 <MOS_GPIO_Output>:
 * /param ptx   --
 *        data32 --
 * /return 无
 */
void MOS_GPIO_Output(GPIO_MemMapPtr ptx, uint32 data32)
{
    1098:	b480      	push	{r7}
    109a:	b083      	sub	sp, #12
    109c:	af00      	add	r7, sp, #0
    109e:	6078      	str	r0, [r7, #4]
    10a0:	6039      	str	r1, [r7, #0]
    ptx->PDOR = data32;
    10a2:	687b      	ldr	r3, [r7, #4]
    10a4:	683a      	ldr	r2, [r7, #0]
    10a6:	601a      	str	r2, [r3, #0]
}
    10a8:	f107 070c 	add.w	r7, r7, #12
    10ac:	46bd      	mov	sp, r7
    10ae:	bc80      	pop	{r7}
    10b0:	4770      	bx	lr
    10b2:	bf00      	nop

000010b4 <MOS_GPIO_Toggle>:
 * /param ptx --
 *        data32 --
 * /return 无
 */
void MOS_GPIO_Toggle(GPIO_MemMapPtr ptx, uint32 data32)
{
    10b4:	b480      	push	{r7}
    10b6:	b083      	sub	sp, #12
    10b8:	af00      	add	r7, sp, #0
    10ba:	6078      	str	r0, [r7, #4]
    10bc:	6039      	str	r1, [r7, #0]
    ptx->PTOR = data32;
    10be:	687b      	ldr	r3, [r7, #4]
    10c0:	683a      	ldr	r2, [r7, #0]
    10c2:	60da      	str	r2, [r3, #12]
}
    10c4:	f107 070c 	add.w	r7, r7, #12
    10c8:	46bd      	mov	sp, r7
    10ca:	bc80      	pop	{r7}
    10cc:	4770      	bx	lr
    10ce:	bf00      	nop

000010d0 <MOS_GPIO_Input>:
 * /brief 读取GPIO端口0~31的数据
 * /param ptx --
 * /return 取得的32为数据
 */
uint32 MOS_GPIO_Input(GPIO_MemMapPtr ptx)
{
    10d0:	b480      	push	{r7}
    10d2:	b085      	sub	sp, #20
    10d4:	af00      	add	r7, sp, #0
    10d6:	6078      	str	r0, [r7, #4]
    uint32 tmp;
    tmp = ptx->PDIR;
    10d8:	687b      	ldr	r3, [r7, #4]
    10da:	691b      	ldr	r3, [r3, #16]
    10dc:	60fb      	str	r3, [r7, #12]
    return (tmp);
    10de:	68fb      	ldr	r3, [r7, #12]
}
    10e0:	4618      	mov	r0, r3
    10e2:	f107 0714 	add.w	r7, r7, #20
    10e6:	46bd      	mov	sp, r7
    10e8:	bc80      	pop	{r7}
    10ea:	4770      	bx	lr

000010ec <PORTA_IRQHandler>:

/*
 * PORTA-PORTE中断处理函数
 */
void PORTA_IRQHandler (void)
{
    10ec:	b580      	push	{r7, lr}
    10ee:	af00      	add	r7, sp, #0
    GPIO_ISR[0]();
    10f0:	f240 0328 	movw	r3, #40	; 0x28
    10f4:	f6c1 73ff 	movt	r3, #8191	; 0x1fff
    10f8:	681b      	ldr	r3, [r3, #0]
    10fa:	4798      	blx	r3
    PORTA_ISFR = 0xFFFFFFFF;
    10fc:	f44f 4310 	mov.w	r3, #36864	; 0x9000
    1100:	f2c4 0304 	movt	r3, #16388	; 0x4004
    1104:	f04f 32ff 	mov.w	r2, #4294967295
    1108:	f8c3 20a0 	str.w	r2, [r3, #160]	; 0xa0
}
    110c:	bd80      	pop	{r7, pc}
    110e:	bf00      	nop

00001110 <PORTB_IRQHandler>:
void PORTB_IRQHandler (void)
{
    1110:	b580      	push	{r7, lr}
    1112:	af00      	add	r7, sp, #0
    GPIO_ISR[1]();
    1114:	f240 0328 	movw	r3, #40	; 0x28
    1118:	f6c1 73ff 	movt	r3, #8191	; 0x1fff
    111c:	685b      	ldr	r3, [r3, #4]
    111e:	4798      	blx	r3
    PORTB_ISFR = 0xFFFFFFFF;
    1120:	f44f 4320 	mov.w	r3, #40960	; 0xa000
    1124:	f2c4 0304 	movt	r3, #16388	; 0x4004
    1128:	f04f 32ff 	mov.w	r2, #4294967295
    112c:	f8c3 20a0 	str.w	r2, [r3, #160]	; 0xa0
}
    1130:	bd80      	pop	{r7, pc}
    1132:	bf00      	nop

00001134 <PORTC_IRQHandler>:
void PORTC_IRQHandler (void)
{
    1134:	b580      	push	{r7, lr}
    1136:	af00      	add	r7, sp, #0
    GPIO_ISR[2]();
    1138:	f240 0328 	movw	r3, #40	; 0x28
    113c:	f6c1 73ff 	movt	r3, #8191	; 0x1fff
    1140:	689b      	ldr	r3, [r3, #8]
    1142:	4798      	blx	r3
    PORTC_ISFR = 0xFFFFFFFF;
    1144:	f44f 4330 	mov.w	r3, #45056	; 0xb000
    1148:	f2c4 0304 	movt	r3, #16388	; 0x4004
    114c:	f04f 32ff 	mov.w	r2, #4294967295
    1150:	f8c3 20a0 	str.w	r2, [r3, #160]	; 0xa0
}
    1154:	bd80      	pop	{r7, pc}
    1156:	bf00      	nop

00001158 <PORTD_IRQHandler>:

void PORTD_IRQHandler (void)
{
    1158:	b580      	push	{r7, lr}
    115a:	af00      	add	r7, sp, #0
    GPIO_ISR[3]();
    115c:	f240 0328 	movw	r3, #40	; 0x28
    1160:	f6c1 73ff 	movt	r3, #8191	; 0x1fff
    1164:	68db      	ldr	r3, [r3, #12]
    1166:	4798      	blx	r3
    PORTD_ISFR = 0xFFFFFFFF;
    1168:	f44f 4340 	mov.w	r3, #49152	; 0xc000
    116c:	f2c4 0304 	movt	r3, #16388	; 0x4004
    1170:	f04f 32ff 	mov.w	r2, #4294967295
    1174:	f8c3 20a0 	str.w	r2, [r3, #160]	; 0xa0
}
    1178:	bd80      	pop	{r7, pc}
    117a:	bf00      	nop

0000117c <PORTE_IRQHandler>:

void PORTE_IRQHandler (void)
{
    117c:	b580      	push	{r7, lr}
    117e:	af00      	add	r7, sp, #0
    GPIO_ISR[4]();
    1180:	f240 0328 	movw	r3, #40	; 0x28
    1184:	f6c1 73ff 	movt	r3, #8191	; 0x1fff
    1188:	691b      	ldr	r3, [r3, #16]
    118a:	4798      	blx	r3
    PORTE_ISFR = 0xFFFFFFFF;
    118c:	f44f 4350 	mov.w	r3, #53248	; 0xd000
    1190:	f2c4 0304 	movt	r3, #16388	; 0x4004
    1194:	f04f 32ff 	mov.w	r2, #4294967295
    1198:	f8c3 20a0 	str.w	r2, [r3, #160]	; 0xa0
}
    119c:	bd80      	pop	{r7, pc}
    119e:	bf00      	nop

000011a0 <LPLD_PLL_Setup>:
 *
 * 输出:
 *    内核频率，单位MHz
 */
uint8 LPLD_PLL_Setup(PllOptionEnum_Type core_clk_mhz)
{
    11a0:	b580      	push	{r7, lr}
    11a2:	b084      	sub	sp, #16
    11a4:	af00      	add	r7, sp, #0
    11a6:	4603      	mov	r3, r0
    11a8:	71fb      	strb	r3, [r7, #7]
  PLL参考时钟范围: 2MHz~4MHz
  PLL参考时钟 = 外部参考时钟(CPU_XTAL_CLK_HZ)/prdiv
  CoreClk = PLL参考时钟 x PLL倍频系数 /OUTDIV1
 *************************************************
 */
  core_clk_mhz = (PllOptionEnum_Type)(core_clk_mhz>200u?200u:core_clk_mhz);
    11aa:	79fb      	ldrb	r3, [r7, #7]
    11ac:	2bc8      	cmp	r3, #200	; 0xc8
    11ae:	bf28      	it	cs
    11b0:	23c8      	movcs	r3, #200	; 0xc8
    11b2:	71fb      	strb	r3, [r7, #7]
   switch(core_clk_mhz)
    11b4:	79fb      	ldrb	r3, [r7, #7]
    11b6:	2b78      	cmp	r3, #120	; 0x78
    11b8:	d01b      	beq.n	11f2 <LPLD_PLL_Setup+0x52>
    11ba:	2b78      	cmp	r3, #120	; 0x78
    11bc:	dc04      	bgt.n	11c8 <LPLD_PLL_Setup+0x28>
    11be:	2b32      	cmp	r3, #50	; 0x32
    11c0:	d009      	beq.n	11d6 <LPLD_PLL_Setup+0x36>
    11c2:	2b64      	cmp	r3, #100	; 0x64
    11c4:	d00e      	beq.n	11e4 <LPLD_PLL_Setup+0x44>
    11c6:	e030      	b.n	122a <LPLD_PLL_Setup+0x8a>
    11c8:	2bb4      	cmp	r3, #180	; 0xb4
    11ca:	d020      	beq.n	120e <LPLD_PLL_Setup+0x6e>
    11cc:	2bc8      	cmp	r3, #200	; 0xc8
    11ce:	d025      	beq.n	121c <LPLD_PLL_Setup+0x7c>
    11d0:	2b96      	cmp	r3, #150	; 0x96
    11d2:	d015      	beq.n	1200 <LPLD_PLL_Setup+0x60>
    11d4:	e029      	b.n	122a <LPLD_PLL_Setup+0x8a>
  {
  case PLL_50:
    prdiv = 7u;
    11d6:	f04f 0307 	mov.w	r3, #7
    11da:	73fb      	strb	r3, [r7, #15]
    vdiv = 1u;
    11dc:	f04f 0301 	mov.w	r3, #1
    11e0:	73bb      	strb	r3, [r7, #14]
    break;
    11e2:	e028      	b.n	1236 <LPLD_PLL_Setup+0x96>
  case PLL_100:
    prdiv = 7u;
    11e4:	f04f 0307 	mov.w	r3, #7
    11e8:	73fb      	strb	r3, [r7, #15]
    vdiv = 16u;
    11ea:	f04f 0310 	mov.w	r3, #16
    11ee:	73bb      	strb	r3, [r7, #14]
    break;
    11f0:	e021      	b.n	1236 <LPLD_PLL_Setup+0x96>
  case PLL_120:
    prdiv = 4u;
    11f2:	f04f 0304 	mov.w	r3, #4
    11f6:	73fb      	strb	r3, [r7, #15]
    vdiv = 8u;
    11f8:	f04f 0308 	mov.w	r3, #8
    11fc:	73bb      	strb	r3, [r7, #14]
    break;
    11fe:	e01a      	b.n	1236 <LPLD_PLL_Setup+0x96>
  case PLL_150:
    prdiv = 4u;
    1200:	f04f 0304 	mov.w	r3, #4
    1204:	73fb      	strb	r3, [r7, #15]
    vdiv = 14u;
    1206:	f04f 030e 	mov.w	r3, #14
    120a:	73bb      	strb	r3, [r7, #14]
    break;
    120c:	e013      	b.n	1236 <LPLD_PLL_Setup+0x96>
  case PLL_180:
    prdiv = 4u;
    120e:	f04f 0304 	mov.w	r3, #4
    1212:	73fb      	strb	r3, [r7, #15]
    vdiv = 20u;
    1214:	f04f 0314 	mov.w	r3, #20
    1218:	73bb      	strb	r3, [r7, #14]
    break;
    121a:	e00c      	b.n	1236 <LPLD_PLL_Setup+0x96>
  case PLL_200:
    prdiv = 4u;
    121c:	f04f 0304 	mov.w	r3, #4
    1220:	73fb      	strb	r3, [r7, #15]
    vdiv = 24u;
    1222:	f04f 0318 	mov.w	r3, #24
    1226:	73bb      	strb	r3, [r7, #14]
    break;
    1228:	e005      	b.n	1236 <LPLD_PLL_Setup+0x96>
  default:
    return LPLD_PLL_Setup(PLL_120);
    122a:	f04f 0078 	mov.w	r0, #120	; 0x78
    122e:	f7ff ffb7 	bl	11a0 <LPLD_PLL_Setup>
    1232:	4603      	mov	r3, r0
    1234:	e0f2      	b.n	141c <LPLD_PLL_Setup+0x27c>
  }
  pll_freq = core_clk_mhz * 1;
    1236:	79fb      	ldrb	r3, [r7, #7]
    1238:	72bb      	strb	r3, [r7, #10]
  core_div = 0;
    123a:	f04f 0300 	mov.w	r3, #0
    123e:	727b      	strb	r3, [r7, #9]
  if((bus_div = (uint8)(core_clk_mhz/BUS_CLK_MHZ - 1u)) == (uint8)-1)
    1240:	79fa      	ldrb	r2, [r7, #7]
    1242:	f248 531f 	movw	r3, #34079	; 0x851f
    1246:	f2c5 13eb 	movt	r3, #20971	; 0x51eb
    124a:	fba3 1302 	umull	r1, r3, r3, r2
    124e:	ea4f 1313 	mov.w	r3, r3, lsr #4
    1252:	b2db      	uxtb	r3, r3
    1254:	f103 33ff 	add.w	r3, r3, #4294967295
    1258:	737b      	strb	r3, [r7, #13]
    125a:	7b7b      	ldrb	r3, [r7, #13]
    125c:	2bff      	cmp	r3, #255	; 0xff
    125e:	d103      	bne.n	1268 <LPLD_PLL_Setup+0xc8>
  {
    bus_div = 0;
    1260:	f04f 0300 	mov.w	r3, #0
    1264:	737b      	strb	r3, [r7, #13]
    1266:	e00b      	b.n	1280 <LPLD_PLL_Setup+0xe0>
  }
  else if(core_clk_mhz/(bus_div+1) > BUS_CLK_MHZ)
    1268:	79fa      	ldrb	r2, [r7, #7]
    126a:	7b7b      	ldrb	r3, [r7, #13]
    126c:	f103 0301 	add.w	r3, r3, #1
    1270:	fb92 f3f3 	sdiv	r3, r2, r3
    1274:	2b32      	cmp	r3, #50	; 0x32
    1276:	d903      	bls.n	1280 <LPLD_PLL_Setup+0xe0>
  {
    bus_div += 1;
    1278:	7b7b      	ldrb	r3, [r7, #13]
    127a:	f103 0301 	add.w	r3, r3, #1
    127e:	737b      	strb	r3, [r7, #13]
  }
  if((flexbus_div = (core_clk_mhz/FLEXBUS_CLK_MHZ - 1u)) == (uint8)-1)
    1280:	79fa      	ldrb	r2, [r7, #7]
    1282:	f248 531f 	movw	r3, #34079	; 0x851f
    1286:	f2c5 13eb 	movt	r3, #20971	; 0x51eb
    128a:	fba3 1302 	umull	r1, r3, r3, r2
    128e:	ea4f 1313 	mov.w	r3, r3, lsr #4
    1292:	b2db      	uxtb	r3, r3
    1294:	f103 33ff 	add.w	r3, r3, #4294967295
    1298:	733b      	strb	r3, [r7, #12]
    129a:	7b3b      	ldrb	r3, [r7, #12]
    129c:	2bff      	cmp	r3, #255	; 0xff
    129e:	d103      	bne.n	12a8 <LPLD_PLL_Setup+0x108>
  {
    flexbus_div = 0;
    12a0:	f04f 0300 	mov.w	r3, #0
    12a4:	733b      	strb	r3, [r7, #12]
    12a6:	e00b      	b.n	12c0 <LPLD_PLL_Setup+0x120>
  }
  else if(core_clk_mhz/(flexbus_div+1) > FLEXBUS_CLK_MHZ)
    12a8:	79fa      	ldrb	r2, [r7, #7]
    12aa:	7b3b      	ldrb	r3, [r7, #12]
    12ac:	f103 0301 	add.w	r3, r3, #1
    12b0:	fb92 f3f3 	sdiv	r3, r2, r3
    12b4:	2b32      	cmp	r3, #50	; 0x32
    12b6:	d903      	bls.n	12c0 <LPLD_PLL_Setup+0x120>
  {
    flexbus_div += 1;
    12b8:	7b3b      	ldrb	r3, [r7, #12]
    12ba:	f103 0301 	add.w	r3, r3, #1
    12be:	733b      	strb	r3, [r7, #12]
  }
  if((flash_div = (core_clk_mhz/FLASH_CLK_MHZ - 1u)) == (uint8)-1)
    12c0:	79fa      	ldrb	r2, [r7, #7]
    12c2:	f248 531f 	movw	r3, #34079	; 0x851f
    12c6:	f2c5 13eb 	movt	r3, #20971	; 0x51eb
    12ca:	fba3 1302 	umull	r1, r3, r3, r2
    12ce:	ea4f 03d3 	mov.w	r3, r3, lsr #3
    12d2:	b2db      	uxtb	r3, r3
    12d4:	f103 33ff 	add.w	r3, r3, #4294967295
    12d8:	72fb      	strb	r3, [r7, #11]
    12da:	7afb      	ldrb	r3, [r7, #11]
    12dc:	2bff      	cmp	r3, #255	; 0xff
    12de:	d103      	bne.n	12e8 <LPLD_PLL_Setup+0x148>
  {
    flash_div = 0;
    12e0:	f04f 0300 	mov.w	r3, #0
    12e4:	72fb      	strb	r3, [r7, #11]
    12e6:	e00b      	b.n	1300 <LPLD_PLL_Setup+0x160>
  }
  else if(core_clk_mhz/(flash_div+1) > FLASH_CLK_MHZ)
    12e8:	79fa      	ldrb	r2, [r7, #7]
    12ea:	7afb      	ldrb	r3, [r7, #11]
    12ec:	f103 0301 	add.w	r3, r3, #1
    12f0:	fb92 f3f3 	sdiv	r3, r2, r3
    12f4:	2b19      	cmp	r3, #25
    12f6:	d903      	bls.n	1300 <LPLD_PLL_Setup+0x160>
  {
    flash_div += 1;
    12f8:	7afb      	ldrb	r3, [r7, #11]
    12fa:	f103 0301 	add.w	r3, r3, #1
    12fe:	72fb      	strb	r3, [r7, #11]
  }
 
  // 这里假设复位后 MCG 模块默认为 FEI 模式 
  
  // 首先移动到 FBE 模式
  MCG_C2 = 0;
    1300:	f44f 4380 	mov.w	r3, #16384	; 0x4000
    1304:	f2c4 0306 	movt	r3, #16390	; 0x4006
    1308:	f04f 0200 	mov.w	r2, #0
    130c:	705a      	strb	r2, [r3, #1]
  
  // 振荡器初始化完成后,释放锁存状态下的 oscillator 和 GPIO 
  SIM_SCGC4 |= SIM_SCGC4_LLWU_MASK;
    130e:	f44f 43e0 	mov.w	r3, #28672	; 0x7000
    1312:	f2c4 0304 	movt	r3, #16388	; 0x4004
    1316:	f44f 42e0 	mov.w	r2, #28672	; 0x7000
    131a:	f2c4 0204 	movt	r2, #16388	; 0x4004
    131e:	f502 5281 	add.w	r2, r2, #4128	; 0x1020
    1322:	f102 0214 	add.w	r2, r2, #20
    1326:	6812      	ldr	r2, [r2, #0]
    1328:	f042 5280 	orr.w	r2, r2, #268435456	; 0x10000000
    132c:	f503 5381 	add.w	r3, r3, #4128	; 0x1020
    1330:	f103 0314 	add.w	r3, r3, #20
    1334:	601a      	str	r2, [r3, #0]
//  LLWU->CS |= LLWU_CS_ACKISO_MASK;
  
  // 选择外部 oscilator 、参考分频器 and 清零 IREFS 启动外部osc
  // CLKS=2, FRDIV=3, IREFS=0, IRCLKEN=0, IREFSTEN=0
  MCG_C1 = MCG_C1_CLKS(2) | MCG_C1_FRDIV(3);  
    1336:	f44f 4380 	mov.w	r3, #16384	; 0x4000
    133a:	f2c4 0306 	movt	r3, #16390	; 0x4006
    133e:	f04f 0298 	mov.w	r2, #152	; 0x98
    1342:	701a      	strb	r2, [r3, #0]
  
  while (MCG_S & MCG_S_IREFST_MASK){}; // 等待参考时钟清零
    1344:	bf00      	nop
    1346:	f44f 4380 	mov.w	r3, #16384	; 0x4000
    134a:	f2c4 0306 	movt	r3, #16390	; 0x4006
    134e:	799b      	ldrb	r3, [r3, #6]
    1350:	b2db      	uxtb	r3, r3
    1352:	f003 0310 	and.w	r3, r3, #16
    1356:	2b00      	cmp	r3, #0
    1358:	d1f5      	bne.n	1346 <LPLD_PLL_Setup+0x1a6>
  
  while (((MCG_S & MCG_S_CLKST_MASK) >> MCG_S_CLKST_SHIFT) != 0x2){}; // 等待时钟状态显示为外部参考时钟(ext ref clk)
    135a:	bf00      	nop
    135c:	f44f 4380 	mov.w	r3, #16384	; 0x4000
    1360:	f2c4 0306 	movt	r3, #16390	; 0x4006
    1364:	799b      	ldrb	r3, [r3, #6]
    1366:	b2db      	uxtb	r3, r3
    1368:	f003 030c 	and.w	r3, r3, #12
    136c:	ea4f 0393 	mov.w	r3, r3, lsr #2
    1370:	2b02      	cmp	r3, #2
    1372:	d1f3      	bne.n	135c <LPLD_PLL_Setup+0x1bc>
  
  // 进入FBE模式
  // 配置 PLL 参考分频器, PLLCLKEN=0, PLLSTEN=0, PRDIV=5
  // 用晶振频率来选择 PRDIV 值. 仅在有频率晶振的时候支持
  // 产生 2MHz 的参考时钟给 PLL.
  MCG_C5 = MCG_C5_PRDIV(prdiv); // 设置 PLL 匹配晶振的参考分频数 
    1374:	f44f 4380 	mov.w	r3, #16384	; 0x4000
    1378:	f2c4 0306 	movt	r3, #16390	; 0x4006
    137c:	7bfa      	ldrb	r2, [r7, #15]
    137e:	f002 0207 	and.w	r2, r2, #7
    1382:	b2d2      	uxtb	r2, r2
    1384:	711a      	strb	r2, [r3, #4]
  
  // 确保MCG_C6处于复位状态,禁止LOLIE、PLL、和时钟控制器,清PLL VCO分频器
  MCG_C6 = 0x0;
    1386:	f44f 4380 	mov.w	r3, #16384	; 0x4000
    138a:	f2c4 0306 	movt	r3, #16390	; 0x4006
    138e:	f04f 0200 	mov.w	r2, #0
    1392:	715a      	strb	r2, [r3, #5]
  
  //设置系统时钟分频系数
  LPLD_Set_SYS_DIV(core_div, bus_div, flexbus_div, flash_div);  
    1394:	7a78      	ldrb	r0, [r7, #9]
    1396:	7b79      	ldrb	r1, [r7, #13]
    1398:	7b3a      	ldrb	r2, [r7, #12]
    139a:	7afb      	ldrb	r3, [r7, #11]
    139c:	f000 f844 	bl	1428 <LPLD_Set_SYS_DIV>
 // LPLD_Set_SYS_DIV(0, 1, 4, 4);  
  
  //设置倍频系数
  MCG_C6 = MCG_C6_PLLS_MASK | MCG_C6_VDIV(vdiv); 
    13a0:	f44f 4380 	mov.w	r3, #16384	; 0x4000
    13a4:	f2c4 0306 	movt	r3, #16390	; 0x4006
    13a8:	7bba      	ldrb	r2, [r7, #14]
    13aa:	f002 021f 	and.w	r2, r2, #31
    13ae:	b2d2      	uxtb	r2, r2
    13b0:	f042 0240 	orr.w	r2, r2, #64	; 0x40
    13b4:	b2d2      	uxtb	r2, r2
    13b6:	715a      	strb	r2, [r3, #5]
  
  while (!(MCG_S & MCG_S_PLLST_MASK)){}; // wait for PLL status bit to set
    13b8:	bf00      	nop
    13ba:	f44f 4380 	mov.w	r3, #16384	; 0x4000
    13be:	f2c4 0306 	movt	r3, #16390	; 0x4006
    13c2:	799b      	ldrb	r3, [r3, #6]
    13c4:	b2db      	uxtb	r3, r3
    13c6:	f003 0320 	and.w	r3, r3, #32
    13ca:	2b00      	cmp	r3, #0
    13cc:	d0f5      	beq.n	13ba <LPLD_PLL_Setup+0x21a>
  
  while (!(MCG_S & MCG_S_LOCK_MASK)){}; // Wait for LOCK bit to set
    13ce:	bf00      	nop
    13d0:	f44f 4380 	mov.w	r3, #16384	; 0x4000
    13d4:	f2c4 0306 	movt	r3, #16390	; 0x4006
    13d8:	799b      	ldrb	r3, [r3, #6]
    13da:	b2db      	uxtb	r3, r3
    13dc:	f003 0340 	and.w	r3, r3, #64	; 0x40
    13e0:	2b00      	cmp	r3, #0
    13e2:	d0f5      	beq.n	13d0 <LPLD_PLL_Setup+0x230>
  
  // 已经进入PBE模式
  
  // Transition into PEE by setting CLKS to 0
  // CLKS=0, FRDIV=3, IREFS=0, IRCLKEN=0, IREFSTEN=0
  MCG_C1 &= ~MCG_C1_CLKS_MASK;
    13e4:	f44f 4380 	mov.w	r3, #16384	; 0x4000
    13e8:	f2c4 0306 	movt	r3, #16390	; 0x4006
    13ec:	f44f 4280 	mov.w	r2, #16384	; 0x4000
    13f0:	f2c4 0206 	movt	r2, #16390	; 0x4006
    13f4:	7812      	ldrb	r2, [r2, #0]
    13f6:	b2d2      	uxtb	r2, r2
    13f8:	f002 023f 	and.w	r2, r2, #63	; 0x3f
    13fc:	b2d2      	uxtb	r2, r2
    13fe:	701a      	strb	r2, [r3, #0]
  
  // Wait for clock status bits to update
  while (((MCG_S & MCG_S_CLKST_MASK) >> MCG_S_CLKST_SHIFT) != 0x3){};
    1400:	bf00      	nop
    1402:	f44f 4380 	mov.w	r3, #16384	; 0x4000
    1406:	f2c4 0306 	movt	r3, #16390	; 0x4006
    140a:	799b      	ldrb	r3, [r3, #6]
    140c:	b2db      	uxtb	r3, r3
    140e:	f003 030c 	and.w	r3, r3, #12
    1412:	ea4f 0393 	mov.w	r3, r3, lsr #2
    1416:	2b03      	cmp	r3, #3
    1418:	d1f3      	bne.n	1402 <LPLD_PLL_Setup+0x262>
  
  // 已经进入PEE模式
  
  return pll_freq;
    141a:	7abb      	ldrb	r3, [r7, #10]
} 
    141c:	4618      	mov	r0, r3
    141e:	f107 0710 	add.w	r7, r7, #16
    1422:	46bd      	mov	sp, r7
    1424:	bd80      	pop	{r7, pc}
    1426:	bf00      	nop

00001428 <LPLD_Set_SYS_DIV>:
 *
 * 参数:
 *    outdiv1~outdiv4--分别为core, bus, FlexBus, Flash时钟分频系数
 */
void LPLD_Set_SYS_DIV(uint32 outdiv1, uint32 outdiv2, uint32 outdiv3, uint32 outdiv4)
{
    1428:	b480      	push	{r7}
    142a:	b087      	sub	sp, #28
    142c:	af00      	add	r7, sp, #0
    142e:	60f8      	str	r0, [r7, #12]
    1430:	60b9      	str	r1, [r7, #8]
    1432:	607a      	str	r2, [r7, #4]
    1434:	603b      	str	r3, [r7, #0]
  uint32 temp_reg;
  uint8 i;
  
  temp_reg = FMC_PFAPR; // 备份 FMC_PFAPR 寄存器
    1436:	f44f 4370 	mov.w	r3, #61440	; 0xf000
    143a:	f2c4 0301 	movt	r3, #16385	; 0x4001
    143e:	681b      	ldr	r3, [r3, #0]
    1440:	613b      	str	r3, [r7, #16]
  
  // 设置 M0PFD 到 M7PFD 为 1 禁用预先读取
  FMC_PFAPR |= FMC_PFAPR_M7PFD_MASK | FMC_PFAPR_M6PFD_MASK | FMC_PFAPR_M5PFD_MASK
    1442:	f44f 4370 	mov.w	r3, #61440	; 0xf000
    1446:	f2c4 0301 	movt	r3, #16385	; 0x4001
    144a:	f44f 4270 	mov.w	r2, #61440	; 0xf000
    144e:	f2c4 0201 	movt	r2, #16385	; 0x4001
    1452:	6812      	ldr	r2, [r2, #0]
    1454:	f442 027f 	orr.w	r2, r2, #16711680	; 0xff0000
    1458:	601a      	str	r2, [r3, #0]
             | FMC_PFAPR_M4PFD_MASK | FMC_PFAPR_M3PFD_MASK | FMC_PFAPR_M2PFD_MASK
             | FMC_PFAPR_M1PFD_MASK | FMC_PFAPR_M0PFD_MASK;
  
  // 设置时钟分频为期望值  
  SIM_CLKDIV1 = SIM_CLKDIV1_OUTDIV1(outdiv1) | SIM_CLKDIV1_OUTDIV2(outdiv2) 
    145a:	f44f 43e0 	mov.w	r3, #28672	; 0x7000
    145e:	f2c4 0304 	movt	r3, #16388	; 0x4004
    1462:	68fa      	ldr	r2, [r7, #12]
    1464:	ea4f 7102 	mov.w	r1, r2, lsl #28
    1468:	68ba      	ldr	r2, [r7, #8]
    146a:	ea4f 6202 	mov.w	r2, r2, lsl #24
    146e:	f002 6270 	and.w	r2, r2, #251658240	; 0xf000000
    1472:	4311      	orrs	r1, r2
              | SIM_CLKDIV1_OUTDIV3(outdiv3) | SIM_CLKDIV1_OUTDIV4(outdiv4);
    1474:	687a      	ldr	r2, [r7, #4]
    1476:	ea4f 5202 	mov.w	r2, r2, lsl #20
    147a:	f402 0270 	and.w	r2, r2, #15728640	; 0xf00000
    147e:	4311      	orrs	r1, r2
    1480:	683a      	ldr	r2, [r7, #0]
    1482:	ea4f 4202 	mov.w	r2, r2, lsl #16
    1486:	f402 2270 	and.w	r2, r2, #983040	; 0xf0000
    148a:	430a      	orrs	r2, r1
  FMC_PFAPR |= FMC_PFAPR_M7PFD_MASK | FMC_PFAPR_M6PFD_MASK | FMC_PFAPR_M5PFD_MASK
             | FMC_PFAPR_M4PFD_MASK | FMC_PFAPR_M3PFD_MASK | FMC_PFAPR_M2PFD_MASK
             | FMC_PFAPR_M1PFD_MASK | FMC_PFAPR_M0PFD_MASK;
  
  // 设置时钟分频为期望值  
  SIM_CLKDIV1 = SIM_CLKDIV1_OUTDIV1(outdiv1) | SIM_CLKDIV1_OUTDIV2(outdiv2) 
    148c:	f503 5382 	add.w	r3, r3, #4160	; 0x1040
    1490:	f103 0304 	add.w	r3, r3, #4
    1494:	601a      	str	r2, [r3, #0]
              | SIM_CLKDIV1_OUTDIV3(outdiv3) | SIM_CLKDIV1_OUTDIV4(outdiv4);

  // 延时一小段时间等待改变
  for (i = 0 ; i < outdiv4 ; i++)
    1496:	f04f 0300 	mov.w	r3, #0
    149a:	75fb      	strb	r3, [r7, #23]
    149c:	e003      	b.n	14a6 <LPLD_Set_SYS_DIV+0x7e>
    149e:	7dfb      	ldrb	r3, [r7, #23]
    14a0:	f103 0301 	add.w	r3, r3, #1
    14a4:	75fb      	strb	r3, [r7, #23]
    14a6:	7dfa      	ldrb	r2, [r7, #23]
    14a8:	683b      	ldr	r3, [r7, #0]
    14aa:	429a      	cmp	r2, r3
    14ac:	d3f7      	bcc.n	149e <LPLD_Set_SYS_DIV+0x76>
  {}
  
  FMC_PFAPR = temp_reg; // 回复原先的 FMC_PFAPR 寄存器值
    14ae:	f44f 4370 	mov.w	r3, #61440	; 0xf000
    14b2:	f2c4 0301 	movt	r3, #16385	; 0x4001
    14b6:	693a      	ldr	r2, [r7, #16]
    14b8:	601a      	str	r2, [r3, #0]
  
  return;
    14ba:	bf00      	nop
} // set_sys_dividers
    14bc:	f107 071c 	add.w	r7, r7, #28
    14c0:	46bd      	mov	sp, r7
    14c2:	bc80      	pop	{r7}
    14c4:	4770      	bx	lr
    14c6:	bf00      	nop

000014c8 <LPLD_UART_Init>:
 * 输出:
 *    无
 *
 */
void LPLD_UART_Init(UART_InitTypeDef uart_init_structure)
{
    14c8:	b084      	sub	sp, #16
    14ca:	b490      	push	{r4, r7}
    14cc:	b088      	sub	sp, #32
    14ce:	af00      	add	r7, sp, #0
    14d0:	f107 0c28 	add.w	ip, r7, #40	; 0x28
    14d4:	e88c 000f 	stmia.w	ip, {r0, r1, r2, r3}
  register uint16 sbr, brfa;
  uint32 sysclk;
  uint8 temp, x;
  UART_MemMapPtr uartx = uart_init_structure.UART_Uartx;
    14d8:	6abb      	ldr	r3, [r7, #40]	; 0x28
    14da:	617b      	str	r3, [r7, #20]
  uint32 baud = uart_init_structure.UART_BaudRate;
    14dc:	6afb      	ldr	r3, [r7, #44]	; 0x2c
    14de:	613b      	str	r3, [r7, #16]
  PortPinsEnum_Type tx_pin = uart_init_structure.UART_TxPin;
    14e0:	f897 3030 	ldrb.w	r3, [r7, #48]	; 0x30
    14e4:	73fb      	strb	r3, [r7, #15]
  PortPinsEnum_Type rx_pin = uart_init_structure.UART_RxPin;
    14e6:	f897 3031 	ldrb.w	r3, [r7, #49]	; 0x31
    14ea:	73bb      	strb	r3, [r7, #14]
  UART_ISR_CALLBACK rx_isr = uart_init_structure.UART_RxIsr;
    14ec:	6b7b      	ldr	r3, [r7, #52]	; 0x34
    14ee:	60bb      	str	r3, [r7, #8]
  UART_ISR_CALLBACK tx_isr = uart_init_structure.UART_TxIsr;
    14f0:	6bbb      	ldr	r3, [r7, #56]	; 0x38
    14f2:	607b      	str	r3, [r7, #4]
  
  if(baud == NULL)
    14f4:	693b      	ldr	r3, [r7, #16]
    14f6:	2b00      	cmp	r3, #0
    14f8:	d102      	bne.n	1500 <LPLD_UART_Init+0x38>
  {
    baud = 9600;
    14fa:	f44f 5316 	mov.w	r3, #9600	; 0x2580
    14fe:	613b      	str	r3, [r7, #16]
  }
  
  //使能选中的UART串口通道时钟，相应GPIO的UART复用功能   
  if(uartx == UART0_BASE_PTR)
    1500:	697a      	ldr	r2, [r7, #20]
    1502:	f44f 4320 	mov.w	r3, #40960	; 0xa000
    1506:	f2c4 0306 	movt	r3, #16390	; 0x4006
    150a:	429a      	cmp	r2, r3
    150c:	d157      	bne.n	15be <LPLD_UART_Init+0xf6>
  {
    x = 0;
    150e:	f04f 0300 	mov.w	r3, #0
    1512:	76fb      	strb	r3, [r7, #27]
    sysclk = g_core_clock;
    1514:	f240 0304 	movw	r3, #4
    1518:	f6c1 73ff 	movt	r3, #8191	; 0x1fff
    151c:	681b      	ldr	r3, [r3, #0]
    151e:	61fb      	str	r3, [r7, #28]
    SIM_SCGC4 |= SIM_SCGC4_UART0_MASK;
    1520:	f44f 43e0 	mov.w	r3, #28672	; 0x7000
    1524:	f2c4 0304 	movt	r3, #16388	; 0x4004
    1528:	f44f 42e0 	mov.w	r2, #28672	; 0x7000
    152c:	f2c4 0204 	movt	r2, #16388	; 0x4004
    1530:	f502 5281 	add.w	r2, r2, #4128	; 0x1020
    1534:	f102 0214 	add.w	r2, r2, #20
    1538:	6812      	ldr	r2, [r2, #0]
    153a:	f442 6280 	orr.w	r2, r2, #1024	; 0x400
    153e:	f503 5381 	add.w	r3, r3, #4128	; 0x1020
    1542:	f103 0314 	add.w	r3, r3, #20
    1546:	601a      	str	r2, [r3, #0]
    //设置Tx引脚
    if(tx_pin == PTA2)
    1548:	7bfb      	ldrb	r3, [r7, #15]
    154a:	2b02      	cmp	r3, #2
    154c:	d107      	bne.n	155e <LPLD_UART_Init+0x96>
      PORTA_BASE_PTR->PCR[2] = PORT_PCR_MUX(2); 
    154e:	f44f 4310 	mov.w	r3, #36864	; 0x9000
    1552:	f2c4 0304 	movt	r3, #16388	; 0x4004
    1556:	f44f 7200 	mov.w	r2, #512	; 0x200
    155a:	609a      	str	r2, [r3, #8]
    155c:	e011      	b.n	1582 <LPLD_UART_Init+0xba>
    else if(tx_pin == PTA14)
    155e:	7bfb      	ldrb	r3, [r7, #15]
    1560:	2b0e      	cmp	r3, #14
    1562:	d107      	bne.n	1574 <LPLD_UART_Init+0xac>
      PORTA_BASE_PTR->PCR[14] = PORT_PCR_MUX(3); 
    1564:	f44f 4310 	mov.w	r3, #36864	; 0x9000
    1568:	f2c4 0304 	movt	r3, #16388	; 0x4004
    156c:	f44f 7240 	mov.w	r2, #768	; 0x300
    1570:	639a      	str	r2, [r3, #56]	; 0x38
    1572:	e006      	b.n	1582 <LPLD_UART_Init+0xba>
    else
      PORTB_BASE_PTR->PCR[17] = PORT_PCR_MUX(3); 
    1574:	f44f 4320 	mov.w	r3, #40960	; 0xa000
    1578:	f2c4 0304 	movt	r3, #16388	; 0x4004
    157c:	f44f 7240 	mov.w	r2, #768	; 0x300
    1580:	645a      	str	r2, [r3, #68]	; 0x44
    //设置Rx引脚
    if(rx_pin == PTA1)
    1582:	7bbb      	ldrb	r3, [r7, #14]
    1584:	2b01      	cmp	r3, #1
    1586:	d107      	bne.n	1598 <LPLD_UART_Init+0xd0>
      PORTA_BASE_PTR->PCR[1] = PORT_PCR_MUX(2); 
    1588:	f44f 4310 	mov.w	r3, #36864	; 0x9000
    158c:	f2c4 0304 	movt	r3, #16388	; 0x4004
    1590:	f44f 7200 	mov.w	r2, #512	; 0x200
    1594:	605a      	str	r2, [r3, #4]
    1596:	e16a      	b.n	186e <LPLD_UART_Init+0x3a6>
    else if(rx_pin == PTA15)
    1598:	7bbb      	ldrb	r3, [r7, #14]
    159a:	2b0f      	cmp	r3, #15
    159c:	d107      	bne.n	15ae <LPLD_UART_Init+0xe6>
      PORTA_BASE_PTR->PCR[15] = PORT_PCR_MUX(3); 
    159e:	f44f 4310 	mov.w	r3, #36864	; 0x9000
    15a2:	f2c4 0304 	movt	r3, #16388	; 0x4004
    15a6:	f44f 7240 	mov.w	r2, #768	; 0x300
    15aa:	63da      	str	r2, [r3, #60]	; 0x3c
    15ac:	e15f      	b.n	186e <LPLD_UART_Init+0x3a6>
    else
      PORTB_BASE_PTR->PCR[16] = PORT_PCR_MUX(3); 
    15ae:	f44f 4320 	mov.w	r3, #40960	; 0xa000
    15b2:	f2c4 0304 	movt	r3, #16388	; 0x4004
    15b6:	f44f 7240 	mov.w	r2, #768	; 0x300
    15ba:	641a      	str	r2, [r3, #64]	; 0x40
    15bc:	e157      	b.n	186e <LPLD_UART_Init+0x3a6>
  }
  else
  {
    if (uartx == UART1_BASE_PTR)
    15be:	697a      	ldr	r2, [r7, #20]
    15c0:	f44f 4330 	mov.w	r3, #45056	; 0xb000
    15c4:	f2c4 0306 	movt	r3, #16390	; 0x4006
    15c8:	429a      	cmp	r2, r3
    15ca:	d141      	bne.n	1650 <LPLD_UART_Init+0x188>
    {
      x = 1;
    15cc:	f04f 0301 	mov.w	r3, #1
    15d0:	76fb      	strb	r3, [r7, #27]
      sysclk = g_core_clock;
    15d2:	f240 0304 	movw	r3, #4
    15d6:	f6c1 73ff 	movt	r3, #8191	; 0x1fff
    15da:	681b      	ldr	r3, [r3, #0]
    15dc:	61fb      	str	r3, [r7, #28]
      SIM_SCGC4 |= SIM_SCGC4_UART1_MASK;
    15de:	f44f 43e0 	mov.w	r3, #28672	; 0x7000
    15e2:	f2c4 0304 	movt	r3, #16388	; 0x4004
    15e6:	f44f 42e0 	mov.w	r2, #28672	; 0x7000
    15ea:	f2c4 0204 	movt	r2, #16388	; 0x4004
    15ee:	f502 5281 	add.w	r2, r2, #4128	; 0x1020
    15f2:	f102 0214 	add.w	r2, r2, #20
    15f6:	6812      	ldr	r2, [r2, #0]
    15f8:	f442 6200 	orr.w	r2, r2, #2048	; 0x800
    15fc:	f503 5381 	add.w	r3, r3, #4128	; 0x1020
    1600:	f103 0314 	add.w	r3, r3, #20
    1604:	601a      	str	r2, [r3, #0]
      
      if(tx_pin == PTE0)   
    1606:	7bfb      	ldrb	r3, [r7, #15]
    1608:	2b7c      	cmp	r3, #124	; 0x7c
    160a:	d107      	bne.n	161c <LPLD_UART_Init+0x154>
        PORTE_BASE_PTR->PCR[0] = PORT_PCR_MUX(3); 
    160c:	f44f 4350 	mov.w	r3, #53248	; 0xd000
    1610:	f2c4 0304 	movt	r3, #16388	; 0x4004
    1614:	f44f 7240 	mov.w	r2, #768	; 0x300
    1618:	601a      	str	r2, [r3, #0]
    161a:	e006      	b.n	162a <LPLD_UART_Init+0x162>
      else
        PORTC_BASE_PTR->PCR[4] = PORT_PCR_MUX(3); 
    161c:	f44f 4330 	mov.w	r3, #45056	; 0xb000
    1620:	f2c4 0304 	movt	r3, #16388	; 0x4004
    1624:	f44f 7240 	mov.w	r2, #768	; 0x300
    1628:	611a      	str	r2, [r3, #16]
      
      if(rx_pin == PTE1)
    162a:	7bbb      	ldrb	r3, [r7, #14]
    162c:	2b7d      	cmp	r3, #125	; 0x7d
    162e:	d107      	bne.n	1640 <LPLD_UART_Init+0x178>
        PORTE_BASE_PTR->PCR[1] = PORT_PCR_MUX(3); 
    1630:	f44f 4350 	mov.w	r3, #53248	; 0xd000
    1634:	f2c4 0304 	movt	r3, #16388	; 0x4004
    1638:	f44f 7240 	mov.w	r2, #768	; 0x300
    163c:	605a      	str	r2, [r3, #4]
    163e:	e116      	b.n	186e <LPLD_UART_Init+0x3a6>
      else
        PORTC_BASE_PTR->PCR[3] = PORT_PCR_MUX(3); 
    1640:	f44f 4330 	mov.w	r3, #45056	; 0xb000
    1644:	f2c4 0304 	movt	r3, #16388	; 0x4004
    1648:	f44f 7240 	mov.w	r2, #768	; 0x300
    164c:	60da      	str	r2, [r3, #12]
    164e:	e10e      	b.n	186e <LPLD_UART_Init+0x3a6>
    }
    else
    {
      sysclk = g_bus_clock;
    1650:	f240 0308 	movw	r3, #8
    1654:	f6c1 73ff 	movt	r3, #8191	; 0x1fff
    1658:	681b      	ldr	r3, [r3, #0]
    165a:	61fb      	str	r3, [r7, #28]
      if (uartx == UART2_BASE_PTR)
    165c:	697a      	ldr	r2, [r7, #20]
    165e:	f44f 4340 	mov.w	r3, #49152	; 0xc000
    1662:	f2c4 0306 	movt	r3, #16390	; 0x4006
    1666:	429a      	cmp	r2, r3
    1668:	d125      	bne.n	16b6 <LPLD_UART_Init+0x1ee>
      {
        x = 2;
    166a:	f04f 0302 	mov.w	r3, #2
    166e:	76fb      	strb	r3, [r7, #27]
        SIM_SCGC4 |= SIM_SCGC4_UART2_MASK;
    1670:	f44f 43e0 	mov.w	r3, #28672	; 0x7000
    1674:	f2c4 0304 	movt	r3, #16388	; 0x4004
    1678:	f44f 42e0 	mov.w	r2, #28672	; 0x7000
    167c:	f2c4 0204 	movt	r2, #16388	; 0x4004
    1680:	f502 5281 	add.w	r2, r2, #4128	; 0x1020
    1684:	f102 0214 	add.w	r2, r2, #20
    1688:	6812      	ldr	r2, [r2, #0]
    168a:	f442 5280 	orr.w	r2, r2, #4096	; 0x1000
    168e:	f503 5381 	add.w	r3, r3, #4128	; 0x1020
    1692:	f103 0314 	add.w	r3, r3, #20
    1696:	601a      	str	r2, [r3, #0]
        
        PORTD_BASE_PTR->PCR[3] = PORT_PCR_MUX(3); 
    1698:	f44f 4340 	mov.w	r3, #49152	; 0xc000
    169c:	f2c4 0304 	movt	r3, #16388	; 0x4004
    16a0:	f44f 7240 	mov.w	r2, #768	; 0x300
    16a4:	60da      	str	r2, [r3, #12]
        PORTD_BASE_PTR->PCR[2] = PORT_PCR_MUX(3);
    16a6:	f44f 4340 	mov.w	r3, #49152	; 0xc000
    16aa:	f2c4 0304 	movt	r3, #16388	; 0x4004
    16ae:	f44f 7240 	mov.w	r2, #768	; 0x300
    16b2:	609a      	str	r2, [r3, #8]
    16b4:	e0db      	b.n	186e <LPLD_UART_Init+0x3a6>
      }
      else
      {
        if(uartx == UART3_BASE_PTR)
    16b6:	697a      	ldr	r2, [r7, #20]
    16b8:	f44f 4350 	mov.w	r3, #53248	; 0xd000
    16bc:	f2c4 0306 	movt	r3, #16390	; 0x4006
    16c0:	429a      	cmp	r2, r3
    16c2:	d151      	bne.n	1768 <LPLD_UART_Init+0x2a0>
        {
          x = 3;
    16c4:	f04f 0303 	mov.w	r3, #3
    16c8:	76fb      	strb	r3, [r7, #27]
          SIM_SCGC4 |= SIM_SCGC4_UART3_MASK;
    16ca:	f44f 43e0 	mov.w	r3, #28672	; 0x7000
    16ce:	f2c4 0304 	movt	r3, #16388	; 0x4004
    16d2:	f44f 42e0 	mov.w	r2, #28672	; 0x7000
    16d6:	f2c4 0204 	movt	r2, #16388	; 0x4004
    16da:	f502 5281 	add.w	r2, r2, #4128	; 0x1020
    16de:	f102 0214 	add.w	r2, r2, #20
    16e2:	6812      	ldr	r2, [r2, #0]
    16e4:	f442 5200 	orr.w	r2, r2, #8192	; 0x2000
    16e8:	f503 5381 	add.w	r3, r3, #4128	; 0x1020
    16ec:	f103 0314 	add.w	r3, r3, #20
    16f0:	601a      	str	r2, [r3, #0]
          
          if(tx_pin == PTE4)
    16f2:	7bfb      	ldrb	r3, [r7, #15]
    16f4:	2b80      	cmp	r3, #128	; 0x80
    16f6:	d107      	bne.n	1708 <LPLD_UART_Init+0x240>
            PORTE_BASE_PTR->PCR[4] = PORT_PCR_MUX(3); 
    16f8:	f44f 4350 	mov.w	r3, #53248	; 0xd000
    16fc:	f2c4 0304 	movt	r3, #16388	; 0x4004
    1700:	f44f 7240 	mov.w	r2, #768	; 0x300
    1704:	611a      	str	r2, [r3, #16]
    1706:	e011      	b.n	172c <LPLD_UART_Init+0x264>
          else if(tx_pin == PTB11)
    1708:	7bfb      	ldrb	r3, [r7, #15]
    170a:	2b2b      	cmp	r3, #43	; 0x2b
    170c:	d107      	bne.n	171e <LPLD_UART_Init+0x256>
            PORTB_BASE_PTR->PCR[11] = PORT_PCR_MUX(3); 
    170e:	f44f 4320 	mov.w	r3, #40960	; 0xa000
    1712:	f2c4 0304 	movt	r3, #16388	; 0x4004
    1716:	f44f 7240 	mov.w	r2, #768	; 0x300
    171a:	62da      	str	r2, [r3, #44]	; 0x2c
    171c:	e006      	b.n	172c <LPLD_UART_Init+0x264>
          else 
            PORTC_BASE_PTR->PCR[17] = PORT_PCR_MUX(3); 
    171e:	f44f 4330 	mov.w	r3, #45056	; 0xb000
    1722:	f2c4 0304 	movt	r3, #16388	; 0x4004
    1726:	f44f 7240 	mov.w	r2, #768	; 0x300
    172a:	645a      	str	r2, [r3, #68]	; 0x44
          
          if(rx_pin == PTE5)
    172c:	7bbb      	ldrb	r3, [r7, #14]
    172e:	2b81      	cmp	r3, #129	; 0x81
    1730:	d107      	bne.n	1742 <LPLD_UART_Init+0x27a>
            PORTE_BASE_PTR->PCR[5] = PORT_PCR_MUX(3); 
    1732:	f44f 4350 	mov.w	r3, #53248	; 0xd000
    1736:	f2c4 0304 	movt	r3, #16388	; 0x4004
    173a:	f44f 7240 	mov.w	r2, #768	; 0x300
    173e:	615a      	str	r2, [r3, #20]
    1740:	e095      	b.n	186e <LPLD_UART_Init+0x3a6>
          else if(rx_pin == PTB10)
    1742:	7bbb      	ldrb	r3, [r7, #14]
    1744:	2b2a      	cmp	r3, #42	; 0x2a
    1746:	d107      	bne.n	1758 <LPLD_UART_Init+0x290>
            PORTB_BASE_PTR->PCR[10] = PORT_PCR_MUX(3); 
    1748:	f44f 4320 	mov.w	r3, #40960	; 0xa000
    174c:	f2c4 0304 	movt	r3, #16388	; 0x4004
    1750:	f44f 7240 	mov.w	r2, #768	; 0x300
    1754:	629a      	str	r2, [r3, #40]	; 0x28
    1756:	e08a      	b.n	186e <LPLD_UART_Init+0x3a6>
          else
            PORTC_BASE_PTR->PCR[16] = PORT_PCR_MUX(3);
    1758:	f44f 4330 	mov.w	r3, #45056	; 0xb000
    175c:	f2c4 0304 	movt	r3, #16388	; 0x4004
    1760:	f44f 7240 	mov.w	r2, #768	; 0x300
    1764:	641a      	str	r2, [r3, #64]	; 0x40
    1766:	e082      	b.n	186e <LPLD_UART_Init+0x3a6>
        }
        else
        {
          if(uartx == UART4_BASE_PTR)
    1768:	697a      	ldr	r2, [r7, #20]
    176a:	f44f 4320 	mov.w	r3, #40960	; 0xa000
    176e:	f2c4 030e 	movt	r3, #16398	; 0x400e
    1772:	429a      	cmp	r2, r3
    1774:	d13b      	bne.n	17ee <LPLD_UART_Init+0x326>
          {
            x = 4;
    1776:	f04f 0304 	mov.w	r3, #4
    177a:	76fb      	strb	r3, [r7, #27]
            SIM_SCGC1 |= SIM_SCGC1_UART4_MASK;
    177c:	f44f 43e0 	mov.w	r3, #28672	; 0x7000
    1780:	f2c4 0304 	movt	r3, #16388	; 0x4004
    1784:	f44f 42e0 	mov.w	r2, #28672	; 0x7000
    1788:	f2c4 0204 	movt	r2, #16388	; 0x4004
    178c:	f502 5281 	add.w	r2, r2, #4128	; 0x1020
    1790:	f102 0208 	add.w	r2, r2, #8
    1794:	6812      	ldr	r2, [r2, #0]
    1796:	f442 6280 	orr.w	r2, r2, #1024	; 0x400
    179a:	f503 5381 	add.w	r3, r3, #4128	; 0x1020
    179e:	f103 0308 	add.w	r3, r3, #8
    17a2:	601a      	str	r2, [r3, #0]
            
            if(tx_pin == PTE24)
    17a4:	7bfb      	ldrb	r3, [r7, #15]
    17a6:	2b94      	cmp	r3, #148	; 0x94
    17a8:	d107      	bne.n	17ba <LPLD_UART_Init+0x2f2>
              PORTE_BASE_PTR->PCR[24] = PORT_PCR_MUX(3); 
    17aa:	f44f 4350 	mov.w	r3, #53248	; 0xd000
    17ae:	f2c4 0304 	movt	r3, #16388	; 0x4004
    17b2:	f44f 7240 	mov.w	r2, #768	; 0x300
    17b6:	661a      	str	r2, [r3, #96]	; 0x60
    17b8:	e006      	b.n	17c8 <LPLD_UART_Init+0x300>
            else
              PORTC_BASE_PTR->PCR[15] = PORT_PCR_MUX(3); 
    17ba:	f44f 4330 	mov.w	r3, #45056	; 0xb000
    17be:	f2c4 0304 	movt	r3, #16388	; 0x4004
    17c2:	f44f 7240 	mov.w	r2, #768	; 0x300
    17c6:	63da      	str	r2, [r3, #60]	; 0x3c
            
            if(rx_pin == PTE25)
    17c8:	7bbb      	ldrb	r3, [r7, #14]
    17ca:	2b95      	cmp	r3, #149	; 0x95
    17cc:	d107      	bne.n	17de <LPLD_UART_Init+0x316>
              PORTE_BASE_PTR->PCR[25] = PORT_PCR_MUX(3); 
    17ce:	f44f 4350 	mov.w	r3, #53248	; 0xd000
    17d2:	f2c4 0304 	movt	r3, #16388	; 0x4004
    17d6:	f44f 7240 	mov.w	r2, #768	; 0x300
    17da:	665a      	str	r2, [r3, #100]	; 0x64
    17dc:	e047      	b.n	186e <LPLD_UART_Init+0x3a6>
            else
              PORTC_BASE_PTR->PCR[14] = PORT_PCR_MUX(3);
    17de:	f44f 4330 	mov.w	r3, #45056	; 0xb000
    17e2:	f2c4 0304 	movt	r3, #16388	; 0x4004
    17e6:	f44f 7240 	mov.w	r2, #768	; 0x300
    17ea:	639a      	str	r2, [r3, #56]	; 0x38
    17ec:	e03f      	b.n	186e <LPLD_UART_Init+0x3a6>
          }
          else
          {
            x = 5;
    17ee:	f04f 0305 	mov.w	r3, #5
    17f2:	76fb      	strb	r3, [r7, #27]
            uartx = UART5_BASE_PTR;
    17f4:	f44f 4330 	mov.w	r3, #45056	; 0xb000
    17f8:	f2c4 030e 	movt	r3, #16398	; 0x400e
    17fc:	617b      	str	r3, [r7, #20]
            SIM_SCGC1 |= SIM_SCGC1_UART5_MASK;
    17fe:	f44f 43e0 	mov.w	r3, #28672	; 0x7000
    1802:	f2c4 0304 	movt	r3, #16388	; 0x4004
    1806:	f44f 42e0 	mov.w	r2, #28672	; 0x7000
    180a:	f2c4 0204 	movt	r2, #16388	; 0x4004
    180e:	f502 5281 	add.w	r2, r2, #4128	; 0x1020
    1812:	f102 0208 	add.w	r2, r2, #8
    1816:	6812      	ldr	r2, [r2, #0]
    1818:	f442 6200 	orr.w	r2, r2, #2048	; 0x800
    181c:	f503 5381 	add.w	r3, r3, #4128	; 0x1020
    1820:	f103 0308 	add.w	r3, r3, #8
    1824:	601a      	str	r2, [r3, #0]
            
            if(tx_pin == PTD9)
    1826:	7bfb      	ldrb	r3, [r7, #15]
    1828:	2b65      	cmp	r3, #101	; 0x65
    182a:	d107      	bne.n	183c <LPLD_UART_Init+0x374>
              PORTD_BASE_PTR->PCR[9] = PORT_PCR_MUX(3); 
    182c:	f44f 4340 	mov.w	r3, #49152	; 0xc000
    1830:	f2c4 0304 	movt	r3, #16388	; 0x4004
    1834:	f44f 7240 	mov.w	r2, #768	; 0x300
    1838:	625a      	str	r2, [r3, #36]	; 0x24
    183a:	e006      	b.n	184a <LPLD_UART_Init+0x382>
            else
              PORTE_BASE_PTR->PCR[8] = PORT_PCR_MUX(3); 
    183c:	f44f 4350 	mov.w	r3, #53248	; 0xd000
    1840:	f2c4 0304 	movt	r3, #16388	; 0x4004
    1844:	f44f 7240 	mov.w	r2, #768	; 0x300
    1848:	621a      	str	r2, [r3, #32]
            
            if(rx_pin == PTD8)
    184a:	7bbb      	ldrb	r3, [r7, #14]
    184c:	2b64      	cmp	r3, #100	; 0x64
    184e:	d107      	bne.n	1860 <LPLD_UART_Init+0x398>
              PORTD_BASE_PTR->PCR[8] = PORT_PCR_MUX(3); 
    1850:	f44f 4340 	mov.w	r3, #49152	; 0xc000
    1854:	f2c4 0304 	movt	r3, #16388	; 0x4004
    1858:	f44f 7240 	mov.w	r2, #768	; 0x300
    185c:	621a      	str	r2, [r3, #32]
    185e:	e006      	b.n	186e <LPLD_UART_Init+0x3a6>
            else
              PORTE_BASE_PTR->PCR[9] = PORT_PCR_MUX(3); 
    1860:	f44f 4350 	mov.w	r3, #53248	; 0xd000
    1864:	f2c4 0304 	movt	r3, #16388	; 0x4004
    1868:	f44f 7240 	mov.w	r2, #768	; 0x300
    186c:	625a      	str	r2, [r3, #36]	; 0x24
      }
    }
  }
  
  //在配置好其他寄存器前，先关闭发送器和接收器
  uartx->C2 &= ~(UART_C2_TE_MASK | UART_C2_RE_MASK );
    186e:	697b      	ldr	r3, [r7, #20]
    1870:	78db      	ldrb	r3, [r3, #3]
    1872:	b2db      	uxtb	r3, r3
    1874:	f023 030c 	bic.w	r3, r3, #12
    1878:	b2da      	uxtb	r2, r3
    187a:	697b      	ldr	r3, [r7, #20]
    187c:	70da      	strb	r2, [r3, #3]
  
  //配置UART为 8位, 无奇偶校验 */
  uartx->C1 = 0;	
    187e:	697b      	ldr	r3, [r7, #20]
    1880:	f04f 0200 	mov.w	r2, #0
    1884:	709a      	strb	r2, [r3, #2]
  
  //计算波特率
  sbr = (uint16)((sysclk)/(baud * 16));
    1886:	693b      	ldr	r3, [r7, #16]
    1888:	ea4f 1303 	mov.w	r3, r3, lsl #4
    188c:	69fa      	ldr	r2, [r7, #28]
    188e:	fbb2 f3f3 	udiv	r3, r2, r3
    1892:	b29c      	uxth	r4, r3
  
  //保存UARTx_BDH寄存器中除了SBR的值
  temp = uartx->BDH & ~(UART_BDH_SBR(0x1F));
    1894:	697b      	ldr	r3, [r7, #20]
    1896:	781b      	ldrb	r3, [r3, #0]
    1898:	b2db      	uxtb	r3, r3
    189a:	f023 031f 	bic.w	r3, r3, #31
    189e:	70fb      	strb	r3, [r7, #3]
  
  uartx->BDH = temp |  UART_BDH_SBR(((sbr & 0x1F00) >> 8));
    18a0:	4623      	mov	r3, r4
    18a2:	f403 53f8 	and.w	r3, r3, #7936	; 0x1f00
    18a6:	ea4f 2323 	mov.w	r3, r3, asr #8
    18aa:	b2db      	uxtb	r3, r3
    18ac:	f003 031f 	and.w	r3, r3, #31
    18b0:	b2da      	uxtb	r2, r3
    18b2:	78fb      	ldrb	r3, [r7, #3]
    18b4:	4313      	orrs	r3, r2
    18b6:	b2da      	uxtb	r2, r3
    18b8:	697b      	ldr	r3, [r7, #20]
    18ba:	701a      	strb	r2, [r3, #0]
  uartx->BDL = (uint8)(sbr & UART_BDL_SBR_MASK);
    18bc:	b2e2      	uxtb	r2, r4
    18be:	697b      	ldr	r3, [r7, #20]
    18c0:	705a      	strb	r2, [r3, #1]
  
  //配置波特率的微调分数
  brfa = (((sysclk*32)/(baud * 16)) - (sbr * 32));
    18c2:	69fb      	ldr	r3, [r7, #28]
    18c4:	ea4f 1243 	mov.w	r2, r3, lsl #5
    18c8:	693b      	ldr	r3, [r7, #16]
    18ca:	ea4f 1303 	mov.w	r3, r3, lsl #4
    18ce:	fbb2 f3f3 	udiv	r3, r2, r3
    18d2:	b29a      	uxth	r2, r3
    18d4:	4623      	mov	r3, r4
    18d6:	4619      	mov	r1, r3
    18d8:	ea4f 21c1 	mov.w	r1, r1, lsl #11
    18dc:	1acb      	subs	r3, r1, r3
    18de:	ea4f 1343 	mov.w	r3, r3, lsl #5
    18e2:	b29b      	uxth	r3, r3
    18e4:	18d3      	adds	r3, r2, r3
    18e6:	b29c      	uxth	r4, r3
  
  //保存UARTx_C4寄存器中除了BRFA的值
  temp = uartx->C4 & ~(UART_C4_BRFA(0x1F));
    18e8:	697b      	ldr	r3, [r7, #20]
    18ea:	7a9b      	ldrb	r3, [r3, #10]
    18ec:	b2db      	uxtb	r3, r3
    18ee:	f023 031f 	bic.w	r3, r3, #31
    18f2:	70fb      	strb	r3, [r7, #3]
  
  uartx->C4 = temp |  UART_C4_BRFA(brfa);    
    18f4:	b2e3      	uxtb	r3, r4
    18f6:	f003 031f 	and.w	r3, r3, #31
    18fa:	b2da      	uxtb	r2, r3
    18fc:	78fb      	ldrb	r3, [r7, #3]
    18fe:	4313      	orrs	r3, r2
    1900:	b2da      	uxtb	r2, r3
    1902:	697b      	ldr	r3, [r7, #20]
    1904:	729a      	strb	r2, [r3, #10]
  
  //配置接收中断
  if(uart_init_structure.UART_RxIntEnable == TRUE && rx_isr != NULL)
    1906:	f897 3032 	ldrb.w	r3, [r7, #50]	; 0x32
    190a:	2b01      	cmp	r3, #1
    190c:	d113      	bne.n	1936 <LPLD_UART_Init+0x46e>
    190e:	68bb      	ldr	r3, [r7, #8]
    1910:	2b00      	cmp	r3, #0
    1912:	d010      	beq.n	1936 <LPLD_UART_Init+0x46e>
  {
    uartx->C2 |= UART_C2_RIE_MASK; 
    1914:	697b      	ldr	r3, [r7, #20]
    1916:	78db      	ldrb	r3, [r3, #3]
    1918:	b2db      	uxtb	r3, r3
    191a:	f043 0320 	orr.w	r3, r3, #32
    191e:	b2da      	uxtb	r2, r3
    1920:	697b      	ldr	r3, [r7, #20]
    1922:	70da      	strb	r2, [r3, #3]
    UART_R_ISR[x] = rx_isr;
    1924:	7efa      	ldrb	r2, [r7, #27]
    1926:	f240 0354 	movw	r3, #84	; 0x54
    192a:	f6c1 73ff 	movt	r3, #8191	; 0x1fff
    192e:	68b9      	ldr	r1, [r7, #8]
    1930:	f843 1022 	str.w	r1, [r3, r2, lsl #2]
    1934:	e007      	b.n	1946 <LPLD_UART_Init+0x47e>
  } 
  else
  {
    uartx->C2 &= ~(UART_C2_RIE_MASK); 
    1936:	697b      	ldr	r3, [r7, #20]
    1938:	78db      	ldrb	r3, [r3, #3]
    193a:	b2db      	uxtb	r3, r3
    193c:	f023 0320 	bic.w	r3, r3, #32
    1940:	b2da      	uxtb	r2, r3
    1942:	697b      	ldr	r3, [r7, #20]
    1944:	70da      	strb	r2, [r3, #3]
  }
  //配置发送中断
  if(uart_init_structure.UART_TxIntEnable == TRUE && tx_isr != NULL)
    1946:	f897 3033 	ldrb.w	r3, [r7, #51]	; 0x33
    194a:	2b01      	cmp	r3, #1
    194c:	d113      	bne.n	1976 <LPLD_UART_Init+0x4ae>
    194e:	687b      	ldr	r3, [r7, #4]
    1950:	2b00      	cmp	r3, #0
    1952:	d010      	beq.n	1976 <LPLD_UART_Init+0x4ae>
  {
    uartx->C2 |= UART_C2_TIE_MASK; 
    1954:	697b      	ldr	r3, [r7, #20]
    1956:	78db      	ldrb	r3, [r3, #3]
    1958:	b2db      	uxtb	r3, r3
    195a:	f063 037f 	orn	r3, r3, #127	; 0x7f
    195e:	b2da      	uxtb	r2, r3
    1960:	697b      	ldr	r3, [r7, #20]
    1962:	70da      	strb	r2, [r3, #3]
    UART_T_ISR[x] = tx_isr;
    1964:	7efa      	ldrb	r2, [r7, #27]
    1966:	f240 033c 	movw	r3, #60	; 0x3c
    196a:	f6c1 73ff 	movt	r3, #8191	; 0x1fff
    196e:	6879      	ldr	r1, [r7, #4]
    1970:	f843 1022 	str.w	r1, [r3, r2, lsl #2]
    1974:	e007      	b.n	1986 <LPLD_UART_Init+0x4be>
  } 
  else
  {
    uartx->C2 &= ~(UART_C2_TIE_MASK); 
    1976:	697b      	ldr	r3, [r7, #20]
    1978:	78db      	ldrb	r3, [r3, #3]
    197a:	b2db      	uxtb	r3, r3
    197c:	f003 037f 	and.w	r3, r3, #127	; 0x7f
    1980:	b2da      	uxtb	r2, r3
    1982:	697b      	ldr	r3, [r7, #20]
    1984:	70da      	strb	r2, [r3, #3]
  }
  
  //使能发送器和接收器
  uartx->C2 |= (UART_C2_TE_MASK | UART_C2_RE_MASK );    
    1986:	697b      	ldr	r3, [r7, #20]
    1988:	78db      	ldrb	r3, [r3, #3]
    198a:	b2db      	uxtb	r3, r3
    198c:	f043 030c 	orr.w	r3, r3, #12
    1990:	b2da      	uxtb	r2, r3
    1992:	697b      	ldr	r3, [r7, #20]
    1994:	70da      	strb	r2, [r3, #3]
}
    1996:	f107 0720 	add.w	r7, r7, #32
    199a:	46bd      	mov	sp, r7
    199c:	bc90      	pop	{r4, r7}
    199e:	b004      	add	sp, #16
    19a0:	4770      	bx	lr
    19a2:	bf00      	nop

000019a4 <LPLD_UART_GetChar>:
 * 输出:
 *    串口接收的1个字节
 *
 */
int8 LPLD_UART_GetChar(UART_MemMapPtr uartx)
{
    19a4:	b480      	push	{r7}
    19a6:	b083      	sub	sp, #12
    19a8:	af00      	add	r7, sp, #0
    19aa:	6078      	str	r0, [r7, #4]
  //等待数据接收
  while (!(uartx->S1 & UART_S1_RDRF_MASK));
    19ac:	bf00      	nop
    19ae:	687b      	ldr	r3, [r7, #4]
    19b0:	791b      	ldrb	r3, [r3, #4]
    19b2:	b2db      	uxtb	r3, r3
    19b4:	f003 0320 	and.w	r3, r3, #32
    19b8:	2b00      	cmp	r3, #0
    19ba:	d0f8      	beq.n	19ae <LPLD_UART_GetChar+0xa>
  
  //返回接收的1个字节数据
  return uartx->D;
    19bc:	687b      	ldr	r3, [r7, #4]
    19be:	79db      	ldrb	r3, [r3, #7]
    19c0:	b2db      	uxtb	r3, r3
    19c2:	b2db      	uxtb	r3, r3
    19c4:	b25b      	sxtb	r3, r3
}
    19c6:	4618      	mov	r0, r3
    19c8:	f107 070c 	add.w	r7, r7, #12
    19cc:	46bd      	mov	sp, r7
    19ce:	bc80      	pop	{r7}
    19d0:	4770      	bx	lr
    19d2:	bf00      	nop

000019d4 <LPLD_UART_GetChar_Present>:
 * 输出:
 *  0       没有接收到字符
 *  1       已经接收到字符
 */
int32 LPLD_UART_GetChar_Present(UART_MemMapPtr uartx)
{
    19d4:	b480      	push	{r7}
    19d6:	b083      	sub	sp, #12
    19d8:	af00      	add	r7, sp, #0
    19da:	6078      	str	r0, [r7, #4]
    return (uartx->S1 & UART_S1_RDRF_MASK);
    19dc:	687b      	ldr	r3, [r7, #4]
    19de:	791b      	ldrb	r3, [r3, #4]
    19e0:	b2db      	uxtb	r3, r3
    19e2:	f003 0320 	and.w	r3, r3, #32
}
    19e6:	4618      	mov	r0, r3
    19e8:	f107 070c 	add.w	r7, r7, #12
    19ec:	46bd      	mov	sp, r7
    19ee:	bc80      	pop	{r7}
    19f0:	4770      	bx	lr
    19f2:	bf00      	nop

000019f4 <LPLD_UART_PutChar>:
 * 输出:
 *    无
 *
 */
void LPLD_UART_PutChar(UART_MemMapPtr uartx, int8 ch)
{
    19f4:	b480      	push	{r7}
    19f6:	b083      	sub	sp, #12
    19f8:	af00      	add	r7, sp, #0
    19fa:	6078      	str	r0, [r7, #4]
    19fc:	460b      	mov	r3, r1
    19fe:	70fb      	strb	r3, [r7, #3]
  //等待FIFO准备就绪
  while(!(uartx->S1 & UART_S1_TDRE_MASK));
    1a00:	bf00      	nop
    1a02:	687b      	ldr	r3, [r7, #4]
    1a04:	791b      	ldrb	r3, [r3, #4]
    1a06:	b2db      	uxtb	r3, r3
    1a08:	b2db      	uxtb	r3, r3
    1a0a:	b25b      	sxtb	r3, r3
    1a0c:	2b00      	cmp	r3, #0
    1a0e:	daf8      	bge.n	1a02 <LPLD_UART_PutChar+0xe>
  
  //将要发送的1个字节发给UART数据寄存器
  uartx->D = (uint8)ch;
    1a10:	78fa      	ldrb	r2, [r7, #3]
    1a12:	687b      	ldr	r3, [r7, #4]
    1a14:	71da      	strb	r2, [r3, #7]
}
    1a16:	f107 070c 	add.w	r7, r7, #12
    1a1a:	46bd      	mov	sp, r7
    1a1c:	bc80      	pop	{r7}
    1a1e:	4770      	bx	lr

00001a20 <LPLD_UART_PutCharArr>:
 * 输出:
 *    无
 *
 */
void LPLD_UART_PutCharArr(UART_MemMapPtr uartx, char *ch, int32 len)
{
    1a20:	b580      	push	{r7, lr}
    1a22:	b084      	sub	sp, #16
    1a24:	af00      	add	r7, sp, #0
    1a26:	60f8      	str	r0, [r7, #12]
    1a28:	60b9      	str	r1, [r7, #8]
    1a2a:	607a      	str	r2, [r7, #4]
  while(len--)
    1a2c:	e00b      	b.n	1a46 <LPLD_UART_PutCharArr+0x26>
  {
    LPLD_UART_PutChar(uartx, *(ch++));
    1a2e:	68bb      	ldr	r3, [r7, #8]
    1a30:	781b      	ldrb	r3, [r3, #0]
    1a32:	b2db      	uxtb	r3, r3
    1a34:	68ba      	ldr	r2, [r7, #8]
    1a36:	f102 0201 	add.w	r2, r2, #1
    1a3a:	60ba      	str	r2, [r7, #8]
    1a3c:	b25b      	sxtb	r3, r3
    1a3e:	68f8      	ldr	r0, [r7, #12]
    1a40:	4619      	mov	r1, r3
    1a42:	f7ff ffd7 	bl	19f4 <LPLD_UART_PutChar>
 *    无
 *
 */
void LPLD_UART_PutCharArr(UART_MemMapPtr uartx, char *ch, int32 len)
{
  while(len--)
    1a46:	687b      	ldr	r3, [r7, #4]
    1a48:	2b00      	cmp	r3, #0
    1a4a:	bf0c      	ite	eq
    1a4c:	2300      	moveq	r3, #0
    1a4e:	2301      	movne	r3, #1
    1a50:	b2db      	uxtb	r3, r3
    1a52:	687a      	ldr	r2, [r7, #4]
    1a54:	f102 32ff 	add.w	r2, r2, #4294967295
    1a58:	607a      	str	r2, [r7, #4]
    1a5a:	2b00      	cmp	r3, #0
    1a5c:	d1e7      	bne.n	1a2e <LPLD_UART_PutCharArr+0xe>
  {
    LPLD_UART_PutChar(uartx, *(ch++));
  }
}
    1a5e:	f107 0710 	add.w	r7, r7, #16
    1a62:	46bd      	mov	sp, r7
    1a64:	bd80      	pop	{r7, pc}
    1a66:	bf00      	nop

00001a68 <LPLD_UART_EnableIrq>:
 * 输出:
 *    无
 *
 */
void LPLD_UART_EnableIrq(UART_InitTypeDef uart_init_structure)
{
    1a68:	b084      	sub	sp, #16
    1a6a:	b580      	push	{r7, lr}
    1a6c:	af00      	add	r7, sp, #0
    1a6e:	f107 0c08 	add.w	ip, r7, #8
    1a72:	e88c 000f 	stmia.w	ip, {r0, r1, r2, r3}
  if(uart_init_structure.UART_Uartx == UART0_BASE_PTR)
    1a76:	68ba      	ldr	r2, [r7, #8]
    1a78:	f44f 4320 	mov.w	r3, #40960	; 0xa000
    1a7c:	f2c4 0306 	movt	r3, #16390	; 0x4006
    1a80:	429a      	cmp	r2, r3
    1a82:	d104      	bne.n	1a8e <LPLD_UART_EnableIrq+0x26>
  {
    enable_irq(INT_UART0_RX_TX - 16);
    1a84:	f04f 002d 	mov.w	r0, #45	; 0x2d
    1a88:	f7ff f828 	bl	adc <enable_irq>
    1a8c:	e03a      	b.n	1b04 <LPLD_UART_EnableIrq+0x9c>
  }
  else if(uart_init_structure.UART_Uartx == UART1_BASE_PTR)
    1a8e:	68ba      	ldr	r2, [r7, #8]
    1a90:	f44f 4330 	mov.w	r3, #45056	; 0xb000
    1a94:	f2c4 0306 	movt	r3, #16390	; 0x4006
    1a98:	429a      	cmp	r2, r3
    1a9a:	d104      	bne.n	1aa6 <LPLD_UART_EnableIrq+0x3e>
  {
    enable_irq(INT_UART1_RX_TX - 16);
    1a9c:	f04f 002f 	mov.w	r0, #47	; 0x2f
    1aa0:	f7ff f81c 	bl	adc <enable_irq>
    1aa4:	e02e      	b.n	1b04 <LPLD_UART_EnableIrq+0x9c>
  }
  else if(uart_init_structure.UART_Uartx == UART2_BASE_PTR)
    1aa6:	68ba      	ldr	r2, [r7, #8]
    1aa8:	f44f 4340 	mov.w	r3, #49152	; 0xc000
    1aac:	f2c4 0306 	movt	r3, #16390	; 0x4006
    1ab0:	429a      	cmp	r2, r3
    1ab2:	d104      	bne.n	1abe <LPLD_UART_EnableIrq+0x56>
  {
    enable_irq(INT_UART3_RX_TX - 16);
    1ab4:	f04f 0033 	mov.w	r0, #51	; 0x33
    1ab8:	f7ff f810 	bl	adc <enable_irq>
    1abc:	e022      	b.n	1b04 <LPLD_UART_EnableIrq+0x9c>
  }
  else if(uart_init_structure.UART_Uartx == UART3_BASE_PTR)
    1abe:	68ba      	ldr	r2, [r7, #8]
    1ac0:	f44f 4350 	mov.w	r3, #53248	; 0xd000
    1ac4:	f2c4 0306 	movt	r3, #16390	; 0x4006
    1ac8:	429a      	cmp	r2, r3
    1aca:	d104      	bne.n	1ad6 <LPLD_UART_EnableIrq+0x6e>
  {
    enable_irq(INT_UART3_RX_TX - 16);
    1acc:	f04f 0033 	mov.w	r0, #51	; 0x33
    1ad0:	f7ff f804 	bl	adc <enable_irq>
    1ad4:	e016      	b.n	1b04 <LPLD_UART_EnableIrq+0x9c>
  }
  else if(uart_init_structure.UART_Uartx == UART4_BASE_PTR)
    1ad6:	68ba      	ldr	r2, [r7, #8]
    1ad8:	f44f 4320 	mov.w	r3, #40960	; 0xa000
    1adc:	f2c4 030e 	movt	r3, #16398	; 0x400e
    1ae0:	429a      	cmp	r2, r3
    1ae2:	d104      	bne.n	1aee <LPLD_UART_EnableIrq+0x86>
  {
    enable_irq(INT_UART4_RX_TX - 16);
    1ae4:	f04f 0035 	mov.w	r0, #53	; 0x35
    1ae8:	f7fe fff8 	bl	adc <enable_irq>
    1aec:	e00a      	b.n	1b04 <LPLD_UART_EnableIrq+0x9c>
  }
  else if(uart_init_structure.UART_Uartx == UART5_BASE_PTR)
    1aee:	68ba      	ldr	r2, [r7, #8]
    1af0:	f44f 4330 	mov.w	r3, #45056	; 0xb000
    1af4:	f2c4 030e 	movt	r3, #16398	; 0x400e
    1af8:	429a      	cmp	r2, r3
    1afa:	d103      	bne.n	1b04 <LPLD_UART_EnableIrq+0x9c>
  {
    enable_irq(INT_UART5_RX_TX - 16);
    1afc:	f04f 0037 	mov.w	r0, #55	; 0x37
    1b00:	f7fe ffec 	bl	adc <enable_irq>
  }
}
    1b04:	46bd      	mov	sp, r7
    1b06:	e8bd 4080 	ldmia.w	sp!, {r7, lr}
    1b0a:	b004      	add	sp, #16
    1b0c:	4770      	bx	lr
    1b0e:	bf00      	nop

00001b10 <LPLD_UART_DisableIrq>:
 * 输出:
 *    无
 *
 */
void LPLD_UART_DisableIrq(UART_InitTypeDef uart_init_structure)
{
    1b10:	b084      	sub	sp, #16
    1b12:	b580      	push	{r7, lr}
    1b14:	af00      	add	r7, sp, #0
    1b16:	f107 0c08 	add.w	ip, r7, #8
    1b1a:	e88c 000f 	stmia.w	ip, {r0, r1, r2, r3}
  //根据中断请求号使能相应中断
  if(uart_init_structure.UART_Uartx == UART0_BASE_PTR)
    1b1e:	68ba      	ldr	r2, [r7, #8]
    1b20:	f44f 4320 	mov.w	r3, #40960	; 0xa000
    1b24:	f2c4 0306 	movt	r3, #16390	; 0x4006
    1b28:	429a      	cmp	r2, r3
    1b2a:	d104      	bne.n	1b36 <LPLD_UART_DisableIrq+0x26>
    disable_irq(INT_UART0_RX_TX - 16);
    1b2c:	f04f 002d 	mov.w	r0, #45	; 0x2d
    1b30:	f7ff f898 	bl	c64 <disable_irq>
    1b34:	e03a      	b.n	1bac <LPLD_UART_DisableIrq+0x9c>
  else if(uart_init_structure.UART_Uartx == UART1_BASE_PTR)
    1b36:	68ba      	ldr	r2, [r7, #8]
    1b38:	f44f 4330 	mov.w	r3, #45056	; 0xb000
    1b3c:	f2c4 0306 	movt	r3, #16390	; 0x4006
    1b40:	429a      	cmp	r2, r3
    1b42:	d104      	bne.n	1b4e <LPLD_UART_DisableIrq+0x3e>
    disable_irq(INT_UART1_RX_TX - 16);
    1b44:	f04f 002f 	mov.w	r0, #47	; 0x2f
    1b48:	f7ff f88c 	bl	c64 <disable_irq>
    1b4c:	e02e      	b.n	1bac <LPLD_UART_DisableIrq+0x9c>
  else if(uart_init_structure.UART_Uartx == UART2_BASE_PTR)
    1b4e:	68ba      	ldr	r2, [r7, #8]
    1b50:	f44f 4340 	mov.w	r3, #49152	; 0xc000
    1b54:	f2c4 0306 	movt	r3, #16390	; 0x4006
    1b58:	429a      	cmp	r2, r3
    1b5a:	d104      	bne.n	1b66 <LPLD_UART_DisableIrq+0x56>
    disable_irq(INT_UART2_RX_TX - 16);
    1b5c:	f04f 0031 	mov.w	r0, #49	; 0x31
    1b60:	f7ff f880 	bl	c64 <disable_irq>
    1b64:	e022      	b.n	1bac <LPLD_UART_DisableIrq+0x9c>
  else if(uart_init_structure.UART_Uartx == UART3_BASE_PTR)
    1b66:	68ba      	ldr	r2, [r7, #8]
    1b68:	f44f 4350 	mov.w	r3, #53248	; 0xd000
    1b6c:	f2c4 0306 	movt	r3, #16390	; 0x4006
    1b70:	429a      	cmp	r2, r3
    1b72:	d104      	bne.n	1b7e <LPLD_UART_DisableIrq+0x6e>
    disable_irq(INT_UART3_RX_TX - 16);
    1b74:	f04f 0033 	mov.w	r0, #51	; 0x33
    1b78:	f7ff f874 	bl	c64 <disable_irq>
    1b7c:	e016      	b.n	1bac <LPLD_UART_DisableIrq+0x9c>
  else if(uart_init_structure.UART_Uartx == UART4_BASE_PTR)
    1b7e:	68ba      	ldr	r2, [r7, #8]
    1b80:	f44f 4320 	mov.w	r3, #40960	; 0xa000
    1b84:	f2c4 030e 	movt	r3, #16398	; 0x400e
    1b88:	429a      	cmp	r2, r3
    1b8a:	d104      	bne.n	1b96 <LPLD_UART_DisableIrq+0x86>
    disable_irq(INT_UART4_RX_TX - 16);
    1b8c:	f04f 0035 	mov.w	r0, #53	; 0x35
    1b90:	f7ff f868 	bl	c64 <disable_irq>
    1b94:	e00a      	b.n	1bac <LPLD_UART_DisableIrq+0x9c>
  else if(uart_init_structure.UART_Uartx == UART5_BASE_PTR)
    1b96:	68ba      	ldr	r2, [r7, #8]
    1b98:	f44f 4330 	mov.w	r3, #45056	; 0xb000
    1b9c:	f2c4 030e 	movt	r3, #16398	; 0x400e
    1ba0:	429a      	cmp	r2, r3
    1ba2:	d103      	bne.n	1bac <LPLD_UART_DisableIrq+0x9c>
    disable_irq(INT_UART5_RX_TX - 16);
    1ba4:	f04f 0037 	mov.w	r0, #55	; 0x37
    1ba8:	f7ff f85c 	bl	c64 <disable_irq>
}
    1bac:	46bd      	mov	sp, r7
    1bae:	e8bd 4080 	ldmia.w	sp!, {r7, lr}
    1bb2:	b004      	add	sp, #16
    1bb4:	4770      	bx	lr
    1bb6:	bf00      	nop

00001bb8 <UART0_IRQHandler>:

//HW层中断函数，用户无需调用
//UART0
void UART0_IRQHandler(void)
{
    1bb8:	b580      	push	{r7, lr}
    1bba:	af00      	add	r7, sp, #0
  
  //进入接收中断函数
  if((UART0_S1 & UART_S1_RDRF_MASK) && (UART0_C2 & UART_C2_RIE_MASK))
    1bbc:	f44f 4320 	mov.w	r3, #40960	; 0xa000
    1bc0:	f2c4 0306 	movt	r3, #16390	; 0x4006
    1bc4:	791b      	ldrb	r3, [r3, #4]
    1bc6:	b2db      	uxtb	r3, r3
    1bc8:	f003 0320 	and.w	r3, r3, #32
    1bcc:	2b00      	cmp	r3, #0
    1bce:	d00f      	beq.n	1bf0 <UART0_IRQHandler+0x38>
    1bd0:	f44f 4320 	mov.w	r3, #40960	; 0xa000
    1bd4:	f2c4 0306 	movt	r3, #16390	; 0x4006
    1bd8:	78db      	ldrb	r3, [r3, #3]
    1bda:	b2db      	uxtb	r3, r3
    1bdc:	f003 0320 	and.w	r3, r3, #32
    1be0:	2b00      	cmp	r3, #0
    1be2:	d005      	beq.n	1bf0 <UART0_IRQHandler+0x38>
  {
    UART_R_ISR[0]();
    1be4:	f240 0354 	movw	r3, #84	; 0x54
    1be8:	f6c1 73ff 	movt	r3, #8191	; 0x1fff
    1bec:	681b      	ldr	r3, [r3, #0]
    1bee:	4798      	blx	r3
  }
  //进入发送中断函数
  if((UART0_S1 & UART_S1_TDRE_MASK) && (UART0_C2 & UART_C2_TIE_MASK))
    1bf0:	f44f 4320 	mov.w	r3, #40960	; 0xa000
    1bf4:	f2c4 0306 	movt	r3, #16390	; 0x4006
    1bf8:	791b      	ldrb	r3, [r3, #4]
    1bfa:	b2db      	uxtb	r3, r3
    1bfc:	b2db      	uxtb	r3, r3
    1bfe:	b25b      	sxtb	r3, r3
    1c00:	2b00      	cmp	r3, #0
    1c02:	da0f      	bge.n	1c24 <UART0_IRQHandler+0x6c>
    1c04:	f44f 4320 	mov.w	r3, #40960	; 0xa000
    1c08:	f2c4 0306 	movt	r3, #16390	; 0x4006
    1c0c:	78db      	ldrb	r3, [r3, #3]
    1c0e:	b2db      	uxtb	r3, r3
    1c10:	b2db      	uxtb	r3, r3
    1c12:	b25b      	sxtb	r3, r3
    1c14:	2b00      	cmp	r3, #0
    1c16:	da05      	bge.n	1c24 <UART0_IRQHandler+0x6c>
  {
    UART_T_ISR[0]();
    1c18:	f240 033c 	movw	r3, #60	; 0x3c
    1c1c:	f6c1 73ff 	movt	r3, #8191	; 0x1fff
    1c20:	681b      	ldr	r3, [r3, #0]
    1c22:	4798      	blx	r3
  }
}
    1c24:	bd80      	pop	{r7, pc}
    1c26:	bf00      	nop

00001c28 <UART1_IRQHandler>:

//UART1
void UART1_IRQHandler(void)
{
    1c28:	b580      	push	{r7, lr}
    1c2a:	af00      	add	r7, sp, #0
  
  //进入接收中断函数
  if((UART1_S1 & UART_S1_RDRF_MASK) && (UART1_C2 & UART_C2_RIE_MASK))
    1c2c:	f44f 4330 	mov.w	r3, #45056	; 0xb000
    1c30:	f2c4 0306 	movt	r3, #16390	; 0x4006
    1c34:	791b      	ldrb	r3, [r3, #4]
    1c36:	b2db      	uxtb	r3, r3
    1c38:	f003 0320 	and.w	r3, r3, #32
    1c3c:	2b00      	cmp	r3, #0
    1c3e:	d00f      	beq.n	1c60 <UART1_IRQHandler+0x38>
    1c40:	f44f 4330 	mov.w	r3, #45056	; 0xb000
    1c44:	f2c4 0306 	movt	r3, #16390	; 0x4006
    1c48:	78db      	ldrb	r3, [r3, #3]
    1c4a:	b2db      	uxtb	r3, r3
    1c4c:	f003 0320 	and.w	r3, r3, #32
    1c50:	2b00      	cmp	r3, #0
    1c52:	d005      	beq.n	1c60 <UART1_IRQHandler+0x38>
  {
    UART_R_ISR[0]();
    1c54:	f240 0354 	movw	r3, #84	; 0x54
    1c58:	f6c1 73ff 	movt	r3, #8191	; 0x1fff
    1c5c:	681b      	ldr	r3, [r3, #0]
    1c5e:	4798      	blx	r3
  }
  //进入发送中断函数
  if((UART1_S1 & UART_S1_TDRE_MASK) && (UART1_C2 & UART_C2_TIE_MASK))
    1c60:	f44f 4330 	mov.w	r3, #45056	; 0xb000
    1c64:	f2c4 0306 	movt	r3, #16390	; 0x4006
    1c68:	791b      	ldrb	r3, [r3, #4]
    1c6a:	b2db      	uxtb	r3, r3
    1c6c:	b2db      	uxtb	r3, r3
    1c6e:	b25b      	sxtb	r3, r3
    1c70:	2b00      	cmp	r3, #0
    1c72:	da0f      	bge.n	1c94 <UART1_IRQHandler+0x6c>
    1c74:	f44f 4330 	mov.w	r3, #45056	; 0xb000
    1c78:	f2c4 0306 	movt	r3, #16390	; 0x4006
    1c7c:	78db      	ldrb	r3, [r3, #3]
    1c7e:	b2db      	uxtb	r3, r3
    1c80:	b2db      	uxtb	r3, r3
    1c82:	b25b      	sxtb	r3, r3
    1c84:	2b00      	cmp	r3, #0
    1c86:	da05      	bge.n	1c94 <UART1_IRQHandler+0x6c>
  {
    UART_T_ISR[0]();
    1c88:	f240 033c 	movw	r3, #60	; 0x3c
    1c8c:	f6c1 73ff 	movt	r3, #8191	; 0x1fff
    1c90:	681b      	ldr	r3, [r3, #0]
    1c92:	4798      	blx	r3
  }
}
    1c94:	bd80      	pop	{r7, pc}
    1c96:	bf00      	nop

00001c98 <UART2_IRQHandler>:

//UART2
void UART2_IRQHandler(void)
{
    1c98:	b580      	push	{r7, lr}
    1c9a:	af00      	add	r7, sp, #0
  //进入接收中断函数
  if((UART2_S1 & UART_S1_RDRF_MASK) && (UART2_C2 & UART_C2_RIE_MASK))
    1c9c:	f44f 4340 	mov.w	r3, #49152	; 0xc000
    1ca0:	f2c4 0306 	movt	r3, #16390	; 0x4006
    1ca4:	791b      	ldrb	r3, [r3, #4]
    1ca6:	b2db      	uxtb	r3, r3
    1ca8:	f003 0320 	and.w	r3, r3, #32
    1cac:	2b00      	cmp	r3, #0
    1cae:	d00f      	beq.n	1cd0 <UART2_IRQHandler+0x38>
    1cb0:	f44f 4340 	mov.w	r3, #49152	; 0xc000
    1cb4:	f2c4 0306 	movt	r3, #16390	; 0x4006
    1cb8:	78db      	ldrb	r3, [r3, #3]
    1cba:	b2db      	uxtb	r3, r3
    1cbc:	f003 0320 	and.w	r3, r3, #32
    1cc0:	2b00      	cmp	r3, #0
    1cc2:	d005      	beq.n	1cd0 <UART2_IRQHandler+0x38>
  {
    UART_R_ISR[0]();
    1cc4:	f240 0354 	movw	r3, #84	; 0x54
    1cc8:	f6c1 73ff 	movt	r3, #8191	; 0x1fff
    1ccc:	681b      	ldr	r3, [r3, #0]
    1cce:	4798      	blx	r3
  }
  //进入发送中断函数
  if((UART2_S1 & UART_S1_TDRE_MASK) && (UART2_C2 & UART_C2_TIE_MASK))
    1cd0:	f44f 4340 	mov.w	r3, #49152	; 0xc000
    1cd4:	f2c4 0306 	movt	r3, #16390	; 0x4006
    1cd8:	791b      	ldrb	r3, [r3, #4]
    1cda:	b2db      	uxtb	r3, r3
    1cdc:	b2db      	uxtb	r3, r3
    1cde:	b25b      	sxtb	r3, r3
    1ce0:	2b00      	cmp	r3, #0
    1ce2:	da0f      	bge.n	1d04 <UART2_IRQHandler+0x6c>
    1ce4:	f44f 4340 	mov.w	r3, #49152	; 0xc000
    1ce8:	f2c4 0306 	movt	r3, #16390	; 0x4006
    1cec:	78db      	ldrb	r3, [r3, #3]
    1cee:	b2db      	uxtb	r3, r3
    1cf0:	b2db      	uxtb	r3, r3
    1cf2:	b25b      	sxtb	r3, r3
    1cf4:	2b00      	cmp	r3, #0
    1cf6:	da05      	bge.n	1d04 <UART2_IRQHandler+0x6c>
  {
    UART_T_ISR[0]();
    1cf8:	f240 033c 	movw	r3, #60	; 0x3c
    1cfc:	f6c1 73ff 	movt	r3, #8191	; 0x1fff
    1d00:	681b      	ldr	r3, [r3, #0]
    1d02:	4798      	blx	r3
  }
}
    1d04:	bd80      	pop	{r7, pc}
    1d06:	bf00      	nop

00001d08 <UART3_IRQHandler>:

//uart3
void UART3_IRQHandler(void)
{
    1d08:	b580      	push	{r7, lr}
    1d0a:	af00      	add	r7, sp, #0
  //进入接收中断函数
  if((UART3_S1 & UART_S1_RDRF_MASK) && (UART3_C2 & UART_C2_RIE_MASK))
    1d0c:	f44f 4350 	mov.w	r3, #53248	; 0xd000
    1d10:	f2c4 0306 	movt	r3, #16390	; 0x4006
    1d14:	791b      	ldrb	r3, [r3, #4]
    1d16:	b2db      	uxtb	r3, r3
    1d18:	f003 0320 	and.w	r3, r3, #32
    1d1c:	2b00      	cmp	r3, #0
    1d1e:	d00f      	beq.n	1d40 <UART3_IRQHandler+0x38>
    1d20:	f44f 4350 	mov.w	r3, #53248	; 0xd000
    1d24:	f2c4 0306 	movt	r3, #16390	; 0x4006
    1d28:	78db      	ldrb	r3, [r3, #3]
    1d2a:	b2db      	uxtb	r3, r3
    1d2c:	f003 0320 	and.w	r3, r3, #32
    1d30:	2b00      	cmp	r3, #0
    1d32:	d005      	beq.n	1d40 <UART3_IRQHandler+0x38>
  {
    UART_R_ISR[0]();
    1d34:	f240 0354 	movw	r3, #84	; 0x54
    1d38:	f6c1 73ff 	movt	r3, #8191	; 0x1fff
    1d3c:	681b      	ldr	r3, [r3, #0]
    1d3e:	4798      	blx	r3
  }
  //进入发送中断函数
  if((UART3_S1 & UART_S1_TDRE_MASK) && (UART3_C2 & UART_C2_TIE_MASK))
    1d40:	f44f 4350 	mov.w	r3, #53248	; 0xd000
    1d44:	f2c4 0306 	movt	r3, #16390	; 0x4006
    1d48:	791b      	ldrb	r3, [r3, #4]
    1d4a:	b2db      	uxtb	r3, r3
    1d4c:	b2db      	uxtb	r3, r3
    1d4e:	b25b      	sxtb	r3, r3
    1d50:	2b00      	cmp	r3, #0
    1d52:	da0f      	bge.n	1d74 <UART3_IRQHandler+0x6c>
    1d54:	f44f 4350 	mov.w	r3, #53248	; 0xd000
    1d58:	f2c4 0306 	movt	r3, #16390	; 0x4006
    1d5c:	78db      	ldrb	r3, [r3, #3]
    1d5e:	b2db      	uxtb	r3, r3
    1d60:	b2db      	uxtb	r3, r3
    1d62:	b25b      	sxtb	r3, r3
    1d64:	2b00      	cmp	r3, #0
    1d66:	da05      	bge.n	1d74 <UART3_IRQHandler+0x6c>
  {
    UART_T_ISR[0]();
    1d68:	f240 033c 	movw	r3, #60	; 0x3c
    1d6c:	f6c1 73ff 	movt	r3, #8191	; 0x1fff
    1d70:	681b      	ldr	r3, [r3, #0]
    1d72:	4798      	blx	r3
  }
}
    1d74:	bd80      	pop	{r7, pc}
    1d76:	bf00      	nop

00001d78 <UART4_IRQHandler>:

//uart4
void UART4_IRQHandler(void)
{
    1d78:	b580      	push	{r7, lr}
    1d7a:	af00      	add	r7, sp, #0
  //进入接收中断函数
  if((UART4_S1 & UART_S1_RDRF_MASK) && (UART4_C2 & UART_C2_RIE_MASK))
    1d7c:	f44f 4320 	mov.w	r3, #40960	; 0xa000
    1d80:	f2c4 030e 	movt	r3, #16398	; 0x400e
    1d84:	791b      	ldrb	r3, [r3, #4]
    1d86:	b2db      	uxtb	r3, r3
    1d88:	f003 0320 	and.w	r3, r3, #32
    1d8c:	2b00      	cmp	r3, #0
    1d8e:	d00f      	beq.n	1db0 <UART4_IRQHandler+0x38>
    1d90:	f44f 4320 	mov.w	r3, #40960	; 0xa000
    1d94:	f2c4 030e 	movt	r3, #16398	; 0x400e
    1d98:	78db      	ldrb	r3, [r3, #3]
    1d9a:	b2db      	uxtb	r3, r3
    1d9c:	f003 0320 	and.w	r3, r3, #32
    1da0:	2b00      	cmp	r3, #0
    1da2:	d005      	beq.n	1db0 <UART4_IRQHandler+0x38>
  {
    UART_R_ISR[0]();
    1da4:	f240 0354 	movw	r3, #84	; 0x54
    1da8:	f6c1 73ff 	movt	r3, #8191	; 0x1fff
    1dac:	681b      	ldr	r3, [r3, #0]
    1dae:	4798      	blx	r3
  }
  //进入发送中断函数
  if((UART4_S1 & UART_S1_TDRE_MASK) && (UART4_C2 & UART_C2_TIE_MASK))
    1db0:	f44f 4320 	mov.w	r3, #40960	; 0xa000
    1db4:	f2c4 030e 	movt	r3, #16398	; 0x400e
    1db8:	791b      	ldrb	r3, [r3, #4]
    1dba:	b2db      	uxtb	r3, r3
    1dbc:	b2db      	uxtb	r3, r3
    1dbe:	b25b      	sxtb	r3, r3
    1dc0:	2b00      	cmp	r3, #0
    1dc2:	da0f      	bge.n	1de4 <UART4_IRQHandler+0x6c>
    1dc4:	f44f 4320 	mov.w	r3, #40960	; 0xa000
    1dc8:	f2c4 030e 	movt	r3, #16398	; 0x400e
    1dcc:	78db      	ldrb	r3, [r3, #3]
    1dce:	b2db      	uxtb	r3, r3
    1dd0:	b2db      	uxtb	r3, r3
    1dd2:	b25b      	sxtb	r3, r3
    1dd4:	2b00      	cmp	r3, #0
    1dd6:	da05      	bge.n	1de4 <UART4_IRQHandler+0x6c>
  {
    UART_T_ISR[0]();
    1dd8:	f240 033c 	movw	r3, #60	; 0x3c
    1ddc:	f6c1 73ff 	movt	r3, #8191	; 0x1fff
    1de0:	681b      	ldr	r3, [r3, #0]
    1de2:	4798      	blx	r3
  }
}
    1de4:	bd80      	pop	{r7, pc}
    1de6:	bf00      	nop

00001de8 <UART5_IRQHandler>:

//uart3
void UART5_IRQHandler(void)
{
    1de8:	b580      	push	{r7, lr}
    1dea:	af00      	add	r7, sp, #0
  //进入接收中断函数
  if((UART5_S1 & UART_S1_RDRF_MASK) && (UART5_C2 & UART_C2_RIE_MASK))
    1dec:	f44f 4330 	mov.w	r3, #45056	; 0xb000
    1df0:	f2c4 030e 	movt	r3, #16398	; 0x400e
    1df4:	791b      	ldrb	r3, [r3, #4]
    1df6:	b2db      	uxtb	r3, r3
    1df8:	f003 0320 	and.w	r3, r3, #32
    1dfc:	2b00      	cmp	r3, #0
    1dfe:	d00f      	beq.n	1e20 <UART5_IRQHandler+0x38>
    1e00:	f44f 4330 	mov.w	r3, #45056	; 0xb000
    1e04:	f2c4 030e 	movt	r3, #16398	; 0x400e
    1e08:	78db      	ldrb	r3, [r3, #3]
    1e0a:	b2db      	uxtb	r3, r3
    1e0c:	f003 0320 	and.w	r3, r3, #32
    1e10:	2b00      	cmp	r3, #0
    1e12:	d005      	beq.n	1e20 <UART5_IRQHandler+0x38>
  {
    UART_R_ISR[0]();
    1e14:	f240 0354 	movw	r3, #84	; 0x54
    1e18:	f6c1 73ff 	movt	r3, #8191	; 0x1fff
    1e1c:	681b      	ldr	r3, [r3, #0]
    1e1e:	4798      	blx	r3
  }
  //进入发送中断函数
  if((UART5_S1 & UART_S1_TDRE_MASK) && (UART5_C2 & UART_C2_TIE_MASK))
    1e20:	f44f 4330 	mov.w	r3, #45056	; 0xb000
    1e24:	f2c4 030e 	movt	r3, #16398	; 0x400e
    1e28:	791b      	ldrb	r3, [r3, #4]
    1e2a:	b2db      	uxtb	r3, r3
    1e2c:	b2db      	uxtb	r3, r3
    1e2e:	b25b      	sxtb	r3, r3
    1e30:	2b00      	cmp	r3, #0
    1e32:	da0f      	bge.n	1e54 <UART5_IRQHandler+0x6c>
    1e34:	f44f 4330 	mov.w	r3, #45056	; 0xb000
    1e38:	f2c4 030e 	movt	r3, #16398	; 0x400e
    1e3c:	78db      	ldrb	r3, [r3, #3]
    1e3e:	b2db      	uxtb	r3, r3
    1e40:	b2db      	uxtb	r3, r3
    1e42:	b25b      	sxtb	r3, r3
    1e44:	2b00      	cmp	r3, #0
    1e46:	da05      	bge.n	1e54 <UART5_IRQHandler+0x6c>
  {
    UART_T_ISR[0]();
    1e48:	f240 033c 	movw	r3, #60	; 0x3c
    1e4c:	f6c1 73ff 	movt	r3, #8191	; 0x1fff
    1e50:	681b      	ldr	r3, [r3, #0]
    1e52:	4798      	blx	r3
  }
}
    1e54:	bd80      	pop	{r7, pc}
    1e56:	bf00      	nop
    1e58:	75706e49 	ldrbvc	r6, [r0, #-3657]!	; 0xe49
    1e5c:	6f732074 	svcvs	0x00732074
    1e60:	6874656d 	ldmdavs	r4!, {r0, r2, r3, r5, r6, r8, sl, sp, lr}^
    1e64:	3a676e69 	bcc	19dd810 <_etext+0x19db9a4>
    1e68:	00000a0d 	andeq	r0, r0, sp, lsl #20
