
out/main.elf:     file format elf32-littlearm


Disassembly of section .vectortable:

00000000 <__vector_table>:
   0:	20000000 	andcs	r0, r0, r0
   4:	00000915 	andeq	r0, r0, r5, lsl r9
	...
  40:	00002e01 	andeq	r2, r0, r1, lsl #28
  44:	00002e2d 	andeq	r2, r0, sp, lsr #28
  48:	00002e59 	andeq	r2, r0, r9, asr lr
  4c:	00002e85 	andeq	r2, r0, r5, lsl #29
  50:	00002eb1 			; <UNDEFINED> instruction: 0x00002eb1
  54:	00002edd 	ldrdeq	r2, [r0], -sp
  58:	00002f09 	andeq	r2, r0, r9, lsl #30
  5c:	00002f35 	andeq	r2, r0, r5, lsr pc
  60:	00002f61 	andeq	r2, r0, r1, ror #30
  64:	00002f8d 	andeq	r2, r0, sp, lsl #31
  68:	00002fb9 			; <UNDEFINED> instruction: 0x00002fb9
  6c:	00002fe5 	andeq	r2, r0, r5, ror #31
  70:	00003011 	andeq	r3, r0, r1, lsl r0
  74:	0000303d 	andeq	r3, r0, sp, lsr r0
  78:	00003069 	andeq	r3, r0, r9, rrx
  7c:	00003095 	muleq	r0, r5, r0
  80:	000008d9 	ldrdeq	r0, [r0], -r9
  84:	000008d9 	ldrdeq	r0, [r0], -r9
  88:	000008d9 	ldrdeq	r0, [r0], -r9
  8c:	000008d9 	ldrdeq	r0, [r0], -r9
  90:	000008d9 	ldrdeq	r0, [r0], -r9
  94:	000008d9 	ldrdeq	r0, [r0], -r9
  98:	000008d9 	ldrdeq	r0, [r0], -r9
  9c:	000008d9 	ldrdeq	r0, [r0], -r9
  a0:	000008d9 	ldrdeq	r0, [r0], -r9
  a4:	000008d9 	ldrdeq	r0, [r0], -r9
  a8:	00006f4d 	andeq	r6, r0, sp, asr #30
  ac:	0000709d 	muleq	r0, sp, r0
  b0:	000071ed 	andeq	r7, r0, sp, ror #3
  b4:	000008d9 	ldrdeq	r0, [r0], -r9
  b8:	000008d9 	ldrdeq	r0, [r0], -r9
  bc:	000008d9 	ldrdeq	r0, [r0], -r9
  c0:	000008d9 	ldrdeq	r0, [r0], -r9
  c4:	000008d9 	ldrdeq	r0, [r0], -r9
  c8:	000008d9 	ldrdeq	r0, [r0], -r9
  cc:	000008d9 	ldrdeq	r0, [r0], -r9
  d0:	000008d9 	ldrdeq	r0, [r0], -r9
  d4:	000008d9 	ldrdeq	r0, [r0], -r9
  d8:	000008d9 	ldrdeq	r0, [r0], -r9
  dc:	000008d9 	ldrdeq	r0, [r0], -r9
  e0:	000008d9 	ldrdeq	r0, [r0], -r9
  e4:	000008d9 	ldrdeq	r0, [r0], -r9
  e8:	000008d9 	ldrdeq	r0, [r0], -r9
  ec:	000008d9 	ldrdeq	r0, [r0], -r9
  f0:	000008d9 	ldrdeq	r0, [r0], -r9
  f4:	00007a2d 	andeq	r7, r0, sp, lsr #20
  f8:	000008d9 	ldrdeq	r0, [r0], -r9
  fc:	00007a9d 	muleq	r0, sp, sl
 100:	000008d9 	ldrdeq	r0, [r0], -r9
 104:	00007b0d 	andeq	r7, r0, sp, lsl #22
 108:	000008d9 	ldrdeq	r0, [r0], -r9
 10c:	00007b7d 	andeq	r7, r0, sp, ror fp
 110:	000008d9 	ldrdeq	r0, [r0], -r9
 114:	00007bed 	andeq	r7, r0, sp, ror #23
 118:	000008d9 	ldrdeq	r0, [r0], -r9
 11c:	00007c5d 	andeq	r7, r0, sp, asr ip
 120:	000008d9 	ldrdeq	r0, [r0], -r9
 124:	00002879 	andeq	r2, r0, r9, ror r8
 128:	0000288d 	andeq	r2, r0, sp, lsl #17
 12c:	000008d9 	ldrdeq	r0, [r0], -r9
 130:	000008d9 	ldrdeq	r0, [r0], -r9
 134:	000008d9 	ldrdeq	r0, [r0], -r9
 138:	00004c55 	andeq	r4, r0, r5, asr ip
 13c:	00004c69 	andeq	r4, r0, r9, ror #24
 140:	00004c7d 	andeq	r4, r0, sp, ror ip
 144:	000008d9 	ldrdeq	r0, [r0], -r9
 148:	000008d9 	ldrdeq	r0, [r0], -r9
 14c:	000008d9 	ldrdeq	r0, [r0], -r9
 150:	00006409 	andeq	r6, r0, r9, lsl #8
 154:	00006439 	andeq	r6, r0, r9, lsr r4
 158:	00006469 	andeq	r6, r0, r9, ror #8
 15c:	00006499 	muleq	r0, r9, r4
 160:	00005e9d 	muleq	r0, sp, lr
 164:	000008d9 	ldrdeq	r0, [r0], -r9
 168:	000008d9 	ldrdeq	r0, [r0], -r9
 16c:	000008d9 	ldrdeq	r0, [r0], -r9
 170:	000008d9 	ldrdeq	r0, [r0], -r9
 174:	000008d9 	ldrdeq	r0, [r0], -r9
 178:	000008d9 	ldrdeq	r0, [r0], -r9
 17c:	000008d9 	ldrdeq	r0, [r0], -r9
 180:	000008d9 	ldrdeq	r0, [r0], -r9
 184:	000008d9 	ldrdeq	r0, [r0], -r9
 188:	000008d9 	ldrdeq	r0, [r0], -r9
 18c:	000008d9 	ldrdeq	r0, [r0], -r9
 190:	000008d9 	ldrdeq	r0, [r0], -r9
 194:	000008d9 	ldrdeq	r0, [r0], -r9
 198:	000008d9 	ldrdeq	r0, [r0], -r9
 19c:	000050d5 	ldrdeq	r5, [r0], -r5	; <UNPREDICTABLE>
 1a0:	000050f9 	strdeq	r5, [r0], -r9
 1a4:	0000511d 	andeq	r5, r0, sp, lsl r1
 1a8:	00005141 	andeq	r5, r0, r1, asr #2
 1ac:	00005165 	andeq	r5, r0, r5, ror #2
 1b0:	000008d9 	ldrdeq	r0, [r0], -r9
 1b4:	000008d9 	ldrdeq	r0, [r0], -r9
 1b8:	000008d9 	ldrdeq	r0, [r0], -r9
 1bc:	000008d9 	ldrdeq	r0, [r0], -r9
 1c0:	000008d9 	ldrdeq	r0, [r0], -r9
 1c4:	000008d9 	ldrdeq	r0, [r0], -r9
 1c8:	000008d9 	ldrdeq	r0, [r0], -r9
 1cc:	000008d9 	ldrdeq	r0, [r0], -r9
 1d0:	000008d9 	ldrdeq	r0, [r0], -r9
 1d4:	000008d9 	ldrdeq	r0, [r0], -r9
 1d8:	000008d9 	ldrdeq	r0, [r0], -r9
 1dc:	000008d9 	ldrdeq	r0, [r0], -r9
 1e0:	000008d9 	ldrdeq	r0, [r0], -r9
 1e4:	000008d9 	ldrdeq	r0, [r0], -r9
 1e8:	000008d9 	ldrdeq	r0, [r0], -r9
 1ec:	000008d9 	ldrdeq	r0, [r0], -r9
 1f0:	000008d9 	ldrdeq	r0, [r0], -r9
 1f4:	000008d9 	ldrdeq	r0, [r0], -r9
 1f8:	000008d9 	ldrdeq	r0, [r0], -r9
 1fc:	000008d9 	ldrdeq	r0, [r0], -r9
 200:	000008d9 	ldrdeq	r0, [r0], -r9
 204:	000008d9 	ldrdeq	r0, [r0], -r9
 208:	000008d9 	ldrdeq	r0, [r0], -r9
 20c:	000008d9 	ldrdeq	r0, [r0], -r9
 210:	000008d9 	ldrdeq	r0, [r0], -r9
 214:	000008d9 	ldrdeq	r0, [r0], -r9
 218:	000008d9 	ldrdeq	r0, [r0], -r9
 21c:	000008d9 	ldrdeq	r0, [r0], -r9
 220:	000008d9 	ldrdeq	r0, [r0], -r9
 224:	000008d9 	ldrdeq	r0, [r0], -r9
 228:	000008d9 	ldrdeq	r0, [r0], -r9
 22c:	000008d9 	ldrdeq	r0, [r0], -r9
 230:	000008d9 	ldrdeq	r0, [r0], -r9
 234:	000008d9 	ldrdeq	r0, [r0], -r9
 238:	000008d9 	ldrdeq	r0, [r0], -r9
 23c:	000008d9 	ldrdeq	r0, [r0], -r9
 240:	000008d9 	ldrdeq	r0, [r0], -r9
 244:	000008d9 	ldrdeq	r0, [r0], -r9
 248:	000008d9 	ldrdeq	r0, [r0], -r9
 24c:	000008d9 	ldrdeq	r0, [r0], -r9
 250:	000008d9 	ldrdeq	r0, [r0], -r9
 254:	000008d9 	ldrdeq	r0, [r0], -r9
 258:	000008d9 	ldrdeq	r0, [r0], -r9
 25c:	000008d9 	ldrdeq	r0, [r0], -r9
 260:	000008d9 	ldrdeq	r0, [r0], -r9
 264:	000008d9 	ldrdeq	r0, [r0], -r9
 268:	000008d9 	ldrdeq	r0, [r0], -r9
 26c:	000008d9 	ldrdeq	r0, [r0], -r9
 270:	000008d9 	ldrdeq	r0, [r0], -r9
 274:	000008d9 	ldrdeq	r0, [r0], -r9
 278:	000008d9 	ldrdeq	r0, [r0], -r9
 27c:	000008d9 	ldrdeq	r0, [r0], -r9
 280:	000008d9 	ldrdeq	r0, [r0], -r9
 284:	000008d9 	ldrdeq	r0, [r0], -r9
 288:	000008d9 	ldrdeq	r0, [r0], -r9
 28c:	000008d9 	ldrdeq	r0, [r0], -r9
 290:	000008d9 	ldrdeq	r0, [r0], -r9
 294:	000008d9 	ldrdeq	r0, [r0], -r9
 298:	000008d9 	ldrdeq	r0, [r0], -r9
 29c:	000008d9 	ldrdeq	r0, [r0], -r9
 2a0:	000008d9 	ldrdeq	r0, [r0], -r9
 2a4:	000008d9 	ldrdeq	r0, [r0], -r9
 2a8:	000008d9 	ldrdeq	r0, [r0], -r9
 2ac:	000008d9 	ldrdeq	r0, [r0], -r9
 2b0:	000008d9 	ldrdeq	r0, [r0], -r9
 2b4:	000008d9 	ldrdeq	r0, [r0], -r9
 2b8:	000008d9 	ldrdeq	r0, [r0], -r9
 2bc:	000008d9 	ldrdeq	r0, [r0], -r9
 2c0:	000008d9 	ldrdeq	r0, [r0], -r9
 2c4:	000008d9 	ldrdeq	r0, [r0], -r9
 2c8:	000008d9 	ldrdeq	r0, [r0], -r9
 2cc:	000008d9 	ldrdeq	r0, [r0], -r9
 2d0:	000008d9 	ldrdeq	r0, [r0], -r9
 2d4:	000008d9 	ldrdeq	r0, [r0], -r9
 2d8:	000008d9 	ldrdeq	r0, [r0], -r9
 2dc:	000008d9 	ldrdeq	r0, [r0], -r9
 2e0:	000008d9 	ldrdeq	r0, [r0], -r9
 2e4:	000008d9 	ldrdeq	r0, [r0], -r9
 2e8:	000008d9 	ldrdeq	r0, [r0], -r9
 2ec:	000008d9 	ldrdeq	r0, [r0], -r9
 2f0:	000008d9 	ldrdeq	r0, [r0], -r9
 2f4:	000008d9 	ldrdeq	r0, [r0], -r9
 2f8:	000008d9 	ldrdeq	r0, [r0], -r9
 2fc:	000008d9 	ldrdeq	r0, [r0], -r9
 300:	000008d9 	ldrdeq	r0, [r0], -r9
 304:	000008d9 	ldrdeq	r0, [r0], -r9
 308:	000008d9 	ldrdeq	r0, [r0], -r9
 30c:	000008d9 	ldrdeq	r0, [r0], -r9
 310:	000008d9 	ldrdeq	r0, [r0], -r9
 314:	000008d9 	ldrdeq	r0, [r0], -r9
 318:	000008d9 	ldrdeq	r0, [r0], -r9
 31c:	000008d9 	ldrdeq	r0, [r0], -r9
 320:	000008d9 	ldrdeq	r0, [r0], -r9
 324:	000008d9 	ldrdeq	r0, [r0], -r9
 328:	000008d9 	ldrdeq	r0, [r0], -r9
 32c:	000008d9 	ldrdeq	r0, [r0], -r9
 330:	000008d9 	ldrdeq	r0, [r0], -r9
 334:	000008d9 	ldrdeq	r0, [r0], -r9
 338:	000008d9 	ldrdeq	r0, [r0], -r9
 33c:	000008d9 	ldrdeq	r0, [r0], -r9
 340:	000008d9 	ldrdeq	r0, [r0], -r9
 344:	000008d9 	ldrdeq	r0, [r0], -r9
 348:	000008d9 	ldrdeq	r0, [r0], -r9
 34c:	000008d9 	ldrdeq	r0, [r0], -r9
 350:	000008d9 	ldrdeq	r0, [r0], -r9
 354:	000008d9 	ldrdeq	r0, [r0], -r9
 358:	000008d9 	ldrdeq	r0, [r0], -r9
 35c:	000008d9 	ldrdeq	r0, [r0], -r9
 360:	000008d9 	ldrdeq	r0, [r0], -r9
 364:	000008d9 	ldrdeq	r0, [r0], -r9
 368:	000008d9 	ldrdeq	r0, [r0], -r9
 36c:	000008d9 	ldrdeq	r0, [r0], -r9
 370:	000008d9 	ldrdeq	r0, [r0], -r9
 374:	000008d9 	ldrdeq	r0, [r0], -r9
 378:	000008d9 	ldrdeq	r0, [r0], -r9
 37c:	000008d9 	ldrdeq	r0, [r0], -r9
 380:	000008d9 	ldrdeq	r0, [r0], -r9
 384:	000008d9 	ldrdeq	r0, [r0], -r9
 388:	000008d9 	ldrdeq	r0, [r0], -r9
 38c:	000008d9 	ldrdeq	r0, [r0], -r9
 390:	000008d9 	ldrdeq	r0, [r0], -r9
 394:	000008d9 	ldrdeq	r0, [r0], -r9
 398:	000008d9 	ldrdeq	r0, [r0], -r9
 39c:	000008d9 	ldrdeq	r0, [r0], -r9
 3a0:	000008d9 	ldrdeq	r0, [r0], -r9
 3a4:	000008d9 	ldrdeq	r0, [r0], -r9
 3a8:	000008d9 	ldrdeq	r0, [r0], -r9
 3ac:	000008d9 	ldrdeq	r0, [r0], -r9
 3b0:	000008d9 	ldrdeq	r0, [r0], -r9
 3b4:	000008d9 	ldrdeq	r0, [r0], -r9
 3b8:	000008d9 	ldrdeq	r0, [r0], -r9
 3bc:	000008d9 	ldrdeq	r0, [r0], -r9
 3c0:	000008d9 	ldrdeq	r0, [r0], -r9
 3c4:	000008d9 	ldrdeq	r0, [r0], -r9
 3c8:	000008d9 	ldrdeq	r0, [r0], -r9
 3cc:	000008d9 	ldrdeq	r0, [r0], -r9
 3d0:	000008d9 	ldrdeq	r0, [r0], -r9
 3d4:	000008d9 	ldrdeq	r0, [r0], -r9
 3d8:	000008d9 	ldrdeq	r0, [r0], -r9
 3dc:	000008d9 	ldrdeq	r0, [r0], -r9
 3e0:	000008d9 	ldrdeq	r0, [r0], -r9
 3e4:	000008d9 	ldrdeq	r0, [r0], -r9
 3e8:	000008d9 	ldrdeq	r0, [r0], -r9
 3ec:	000008d9 	ldrdeq	r0, [r0], -r9
 3f0:	000008d9 	ldrdeq	r0, [r0], -r9
 3f4:	000008d9 	ldrdeq	r0, [r0], -r9
 3f8:	000008d9 	ldrdeq	r0, [r0], -r9
 3fc:	000008d9 	ldrdeq	r0, [r0], -r9
 400:	ffffffff 			; <UNDEFINED> instruction: 0xffffffff
 404:	ffffffff 			; <UNDEFINED> instruction: 0xffffffff
 408:	ffffffff 			; <UNDEFINED> instruction: 0xffffffff
 40c:	fffffffe 			; <UNDEFINED> instruction: 0xfffffffe

Disassembly of section .text:

00000800 <main>:
extern GPIO_InitTypeDef OV_PTA_init;

extern char ready_send_flag;

int main (void)
{
     800:	b580      	push	{r7, lr}
     802:	b084      	sub	sp, #16
     804:	af04      	add	r7, sp, #16

    Ov7725_Init ();
     806:	f000 fae3 	bl	dd0 <Ov7725_Init>
    Ov7725_Delay();
     80a:	f000 fbe1 	bl	fd0 <Ov7725_Delay>

    //Ov7725_Dma_Init();
    Ov7725_Gpio_Init ();
     80e:	f000 fd8d 	bl	132c <Ov7725_Gpio_Init>
    dma_portx2buff_init (DMA_CH0, (void *)(&GPIOB_PDIR), (void *)img,PORTA_DMAREQ ,DMA_BYTE1, PHOTO_SIZE / 8, DADDR_KEEPON);
     812:	f04f 0300 	mov.w	r3, #0
     816:	9300      	str	r3, [sp, #0]
     818:	f44f 7316 	mov.w	r3, #600	; 0x258
     81c:	9301      	str	r3, [sp, #4]
     81e:	f04f 0301 	mov.w	r3, #1
     822:	9302      	str	r3, [sp, #8]
     824:	f04f 0000 	mov.w	r0, #0
     828:	f24f 0150 	movw	r1, #61520	; 0xf050
     82c:	f2c4 010f 	movt	r1, #16399	; 0x400f
     830:	f240 027c 	movw	r2, #124	; 0x7c
     834:	f6c1 72ff 	movt	r2, #8191	; 0x1fff
     838:	f04f 0331 	mov.w	r3, #49	; 0x31
     83c:	f000 fecc 	bl	15d8 <dma_portx2buff_init>
    //装载DMA中断
    DMA_ISR[DMA_CH0] = Ov7725_eagle_dma;
     840:	f241 6304 	movw	r3, #5636	; 0x1604
     844:	f6c1 73ff 	movt	r3, #8191	; 0x1fff
     848:	f241 0215 	movw	r2, #4117	; 0x1015
     84c:	f2c0 0200 	movt	r2, #0
     850:	601a      	str	r2, [r3, #0]
    //关闭DMA通道
    DMA_DIS(DMA_CH0);
     852:	f44f 4300 	mov.w	r3, #32768	; 0x8000
     856:	f2c4 0300 	movt	r3, #16384	; 0x4000
     85a:	f44f 4200 	mov.w	r2, #32768	; 0x8000
     85e:	f2c4 0200 	movt	r2, #16384	; 0x4000
     862:	6a52      	ldr	r2, [r2, #36]	; 0x24
     864:	f022 0201 	bic.w	r2, r2, #1
     868:	625a      	str	r2, [r3, #36]	; 0x24
    //关GPIO中断
    disable_irq(INT_PORTA - 16);
     86a:	f04f 0057 	mov.w	r0, #87	; 0x57
     86e:	f000 fa13 	bl	c98 <disable_irq>
    //清DMA中断置为标志
    DMA_IRQ_CLEAN(DMA_CH0);
     872:	f44f 4300 	mov.w	r3, #32768	; 0x8000
     876:	f2c4 0300 	movt	r3, #16384	; 0x4000
     87a:	f44f 4200 	mov.w	r2, #32768	; 0x8000
     87e:	f2c4 0200 	movt	r2, #16384	; 0x4000
     882:	6a52      	ldr	r2, [r2, #36]	; 0x24
     884:	f042 0201 	orr.w	r2, r2, #1
     888:	625a      	str	r2, [r3, #36]	; 0x24
    //使能DMA中断
    DMA_IRQ_EN (DMA_CH0);
     88a:	f04f 0000 	mov.w	r0, #0
     88e:	f000 f93f 	bl	b10 <enable_irq>
    //开启GPIO中断
    LPLD_GPIO_EnableIrq(OV_PTA_init);
     892:	f241 53a8 	movw	r3, #5544	; 0x15a8
     896:	f6c1 73ff 	movt	r3, #8191	; 0x1fff
     89a:	691a      	ldr	r2, [r3, #16]
     89c:	9200      	str	r2, [sp, #0]
     89e:	cb0f      	ldmia	r3, {r0, r1, r2, r3}
     8a0:	f004 faa2 	bl	4de8 <LPLD_GPIO_EnableIrq>
     8a4:	e000      	b.n	8a8 <main+0xa8>
            //发送图片到上位机
            //get_midline(Pix_Data, 60, 80);
            Ov7725_sendimg (Pix_Data, PHOTO_SIZE);
            ready_send_flag = 0;
        }
    }
     8a6:	bf00      	nop
    {
        //获取图像
        //Ov7725_eagle_get_img ();
        //解压图像
        //Ov7725_img_extract (Pix_Data, img, PHOTO_SIZE/8);
        if(ready_send_flag)
     8a8:	f240 0378 	movw	r3, #120	; 0x78
     8ac:	f6c1 73ff 	movt	r3, #8191	; 0x1fff
     8b0:	781b      	ldrb	r3, [r3, #0]
     8b2:	2b00      	cmp	r3, #0
     8b4:	d0f7      	beq.n	8a6 <main+0xa6>
        {
            //发送图片到上位机
            //get_midline(Pix_Data, 60, 80);
            Ov7725_sendimg (Pix_Data, PHOTO_SIZE);
     8b6:	f240 20d4 	movw	r0, #724	; 0x2d4
     8ba:	f6c1 70ff 	movt	r0, #8191	; 0x1fff
     8be:	f44f 5196 	mov.w	r1, #4800	; 0x12c0
     8c2:	f000 fd0d 	bl	12e0 <Ov7725_sendimg>
            ready_send_flag = 0;
     8c6:	f240 0378 	movw	r3, #120	; 0x78
     8ca:	f6c1 73ff 	movt	r3, #8191	; 0x1fff
     8ce:	f04f 0200 	mov.w	r2, #0
     8d2:	701a      	strb	r2, [r3, #0]
        }
    }
     8d4:	e7e7      	b.n	8a6 <main+0xa6>
     8d6:	bf00      	nop

000008d8 <CAN0_Bus_Off_IRQHandler>:
 * \param  void
 *
 * \return void
 */
void Default_Handler(void)
{
     8d8:	b580      	push	{r7, lr}
     8da:	b082      	sub	sp, #8
     8dc:	af00      	add	r7, sp, #0
#define VECTORNUM       (*(volatile char *) (0xE000ED04))
  //while (1);
  char vtr = VECTORNUM;
     8de:	f64e 5304 	movw	r3, #60676	; 0xed04
     8e2:	f2ce 0300 	movt	r3, #57344	; 0xe000
     8e6:	781b      	ldrb	r3, [r3, #0]
     8e8:	71fb      	strb	r3, [r7, #7]
  printf ("\n ******************\n");
     8ea:	f648 30d0 	movw	r0, #35792	; 0x8bd0
     8ee:	f2c0 0000 	movt	r0, #0
     8f2:	f007 fe77 	bl	85e4 <printf>
  printf ("Default Handler Error\n");
     8f6:	f648 30e8 	movw	r0, #35816	; 0x8be8
     8fa:	f2c0 0000 	movt	r0, #0
     8fe:	f007 fe71 	bl	85e4 <printf>
  printf ("On vector %d **** Interrupt\n", vtr);
     902:	79fb      	ldrb	r3, [r7, #7]
     904:	f648 4000 	movw	r0, #35840	; 0x8c00
     908:	f2c0 0000 	movt	r0, #0
     90c:	4619      	mov	r1, r3
     90e:	f007 fe69 	bl	85e4 <printf>
  while (1);
     912:	e7fe      	b.n	912 <CAN0_Bus_Off_IRQHandler+0x3a>

00000914 <Reset_Handler>:
 * \param  void
 *
 * \return void
 */
void Reset_Handler(void)
{
     914:	b580      	push	{r7, lr}
     916:	b082      	sub	sp, #8
     918:	af00      	add	r7, sp, #0
  unsigned char *source;
  unsigned char *destination;

  /* watchdog disable */
  *((volatile unsigned short *)0x4005200E) = 0xC520;
     91a:	f242 030e 	movw	r3, #8206	; 0x200e
     91e:	f2c4 0305 	movt	r3, #16389	; 0x4005
     922:	f24c 5220 	movw	r2, #50464	; 0xc520
     926:	801a      	strh	r2, [r3, #0]
  *((volatile unsigned short *)0x4005200E) = 0xD928;
     928:	f242 030e 	movw	r3, #8206	; 0x200e
     92c:	f2c4 0305 	movt	r3, #16389	; 0x4005
     930:	f64d 1228 	movw	r2, #55592	; 0xd928
     934:	801a      	strh	r2, [r3, #0]
  *((volatile unsigned short *)0x40052000) = 0x01D2;
     936:	f44f 5300 	mov.w	r3, #8192	; 0x2000
     93a:	f2c4 0305 	movt	r3, #16389	; 0x4005
     93e:	f44f 72e9 	mov.w	r2, #466	; 0x1d2
     942:	801a      	strh	r2, [r3, #0]

  /* copy data values from ROM to RAM */
  source = (unsigned char *)&_etext;
     944:	f648 43a8 	movw	r3, #36008	; 0x8ca8
     948:	f2c0 0300 	movt	r3, #0
     94c:	607b      	str	r3, [r7, #4]
  destination = (unsigned char *)&_sdata;
     94e:	f240 0300 	movw	r3, #0
     952:	f6c1 73ff 	movt	r3, #8191	; 0x1fff
     956:	603b      	str	r3, [r7, #0]
  while (destination < (unsigned char*)&_edata) {
     958:	e00b      	b.n	972 <Reset_Handler+0x5e>
    *(destination++) = *(source++);
     95a:	687b      	ldr	r3, [r7, #4]
     95c:	781a      	ldrb	r2, [r3, #0]
     95e:	683b      	ldr	r3, [r7, #0]
     960:	701a      	strb	r2, [r3, #0]
     962:	683b      	ldr	r3, [r7, #0]
     964:	f103 0301 	add.w	r3, r3, #1
     968:	603b      	str	r3, [r7, #0]
     96a:	687b      	ldr	r3, [r7, #4]
     96c:	f103 0301 	add.w	r3, r3, #1
     970:	607b      	str	r3, [r7, #4]
  *((volatile unsigned short *)0x40052000) = 0x01D2;

  /* copy data values from ROM to RAM */
  source = (unsigned char *)&_etext;
  destination = (unsigned char *)&_sdata;
  while (destination < (unsigned char*)&_edata) {
     972:	683a      	ldr	r2, [r7, #0]
     974:	f240 0378 	movw	r3, #120	; 0x78
     978:	f6c1 73ff 	movt	r3, #8191	; 0x1fff
     97c:	429a      	cmp	r2, r3
     97e:	d3ec      	bcc.n	95a <Reset_Handler+0x46>
    *(destination++) = *(source++);
  }

  /* clear bss section */
  source = (unsigned char *)&_sbss;
     980:	f240 0378 	movw	r3, #120	; 0x78
     984:	f6c1 73ff 	movt	r3, #8191	; 0x1fff
     988:	607b      	str	r3, [r7, #4]
  destination = (unsigned char *)&_ebss;
     98a:	f241 63f8 	movw	r3, #5880	; 0x16f8
     98e:	f6c1 73ff 	movt	r3, #8191	; 0x1fff
     992:	603b      	str	r3, [r7, #0]
  while (source < destination ) {
     994:	e007      	b.n	9a6 <Reset_Handler+0x92>
    *source++ = 0;
     996:	687b      	ldr	r3, [r7, #4]
     998:	f04f 0200 	mov.w	r2, #0
     99c:	701a      	strb	r2, [r3, #0]
     99e:	687b      	ldr	r3, [r7, #4]
     9a0:	f103 0301 	add.w	r3, r3, #1
     9a4:	607b      	str	r3, [r7, #4]
  }

  /* clear bss section */
  source = (unsigned char *)&_sbss;
  destination = (unsigned char *)&_ebss;
  while (source < destination ) {
     9a6:	687a      	ldr	r2, [r7, #4]
     9a8:	683b      	ldr	r3, [r7, #0]
     9aa:	429a      	cmp	r2, r3
     9ac:	d3f3      	bcc.n	996 <Reset_Handler+0x82>
    *source++ = 0;
  }
 //进入系统初始化函数
  SystemInit();
     9ae:	f000 f803 	bl	9b8 <SystemInit>
 //进入用户函数
  main();
     9b2:	f7ff ff25 	bl	800 <main>

  while(1);
     9b6:	e7fe      	b.n	9b6 <Reset_Handler+0xa2>

000009b8 <SystemInit>:
 * \param  void
 *
 * \return void
 */
void SystemInit(void)
{
     9b8:	b580      	push	{r7, lr}
     9ba:	af00      	add	r7, sp, #0
  //使能所有IO口时钟
  SIM_SCGC5 |= (SIM_SCGC5_PORTA_MASK | SIM_SCGC5_PORTB_MASK
     9bc:	f44f 43e0 	mov.w	r3, #28672	; 0x7000
     9c0:	f2c4 0304 	movt	r3, #16388	; 0x4004
     9c4:	f44f 42e0 	mov.w	r2, #28672	; 0x7000
     9c8:	f2c4 0204 	movt	r2, #16388	; 0x4004
     9cc:	f502 5281 	add.w	r2, r2, #4128	; 0x1020
     9d0:	f102 0218 	add.w	r2, r2, #24
     9d4:	6812      	ldr	r2, [r2, #0]
     9d6:	f442 5278 	orr.w	r2, r2, #15872	; 0x3e00
     9da:	f503 5381 	add.w	r3, r3, #4128	; 0x1020
     9de:	f103 0318 	add.w	r3, r3, #24
     9e2:	601a      	str	r2, [r3, #0]
              | SIM_SCGC5_PORTC_MASK | SIM_SCGC5_PORTD_MASK
              | SIM_SCGC5_PORTE_MASK);
  //初始化各部分时钟：系统内核主频、总线时钟、FlexBus时钟、Flash时钟
  LPLD_PLL_Setup(CORE_CLK_MHZ);
     9e4:	f04f 0096 	mov.w	r0, #150	; 0x96
     9e8:	f004 fd82 	bl	54f0 <LPLD_PLL_Setup>
  
  //更新内核主频
  SystemCoreClockUpdate();
     9ec:	f000 f85e 	bl	aac <SystemCoreClockUpdate>
  
  //获取各部分时钟
  g_core_clock = SystemCoreClock;
     9f0:	f240 0300 	movw	r3, #0
     9f4:	f6c1 73ff 	movt	r3, #8191	; 0x1fff
     9f8:	681a      	ldr	r2, [r3, #0]
     9fa:	f240 0368 	movw	r3, #104	; 0x68
     9fe:	f6c1 73ff 	movt	r3, #8191	; 0x1fff
     a02:	601a      	str	r2, [r3, #0]
  g_bus_clock = g_core_clock / ((uint32_t)((SIM_CLKDIV1 & SIM_CLKDIV1_OUTDIV2_MASK) >> SIM_CLKDIV1_OUTDIV2_SHIFT)+ 1u);
     a04:	f240 0368 	movw	r3, #104	; 0x68
     a08:	f6c1 73ff 	movt	r3, #8191	; 0x1fff
     a0c:	681a      	ldr	r2, [r3, #0]
     a0e:	f44f 43e0 	mov.w	r3, #28672	; 0x7000
     a12:	f2c4 0304 	movt	r3, #16388	; 0x4004
     a16:	f503 5382 	add.w	r3, r3, #4160	; 0x1040
     a1a:	f103 0304 	add.w	r3, r3, #4
     a1e:	681b      	ldr	r3, [r3, #0]
     a20:	f003 6370 	and.w	r3, r3, #251658240	; 0xf000000
     a24:	ea4f 6313 	mov.w	r3, r3, lsr #24
     a28:	f103 0301 	add.w	r3, r3, #1
     a2c:	fbb2 f2f3 	udiv	r2, r2, r3
     a30:	f240 036c 	movw	r3, #108	; 0x6c
     a34:	f6c1 73ff 	movt	r3, #8191	; 0x1fff
     a38:	601a      	str	r2, [r3, #0]
  g_flexbus_clock =  g_core_clock / ((uint32_t)((SIM_CLKDIV1 & SIM_CLKDIV1_OUTDIV3_MASK) >> SIM_CLKDIV1_OUTDIV3_SHIFT)+ 1u);
     a3a:	f240 0368 	movw	r3, #104	; 0x68
     a3e:	f6c1 73ff 	movt	r3, #8191	; 0x1fff
     a42:	681a      	ldr	r2, [r3, #0]
     a44:	f44f 43e0 	mov.w	r3, #28672	; 0x7000
     a48:	f2c4 0304 	movt	r3, #16388	; 0x4004
     a4c:	f503 5382 	add.w	r3, r3, #4160	; 0x1040
     a50:	f103 0304 	add.w	r3, r3, #4
     a54:	681b      	ldr	r3, [r3, #0]
     a56:	f403 0370 	and.w	r3, r3, #15728640	; 0xf00000
     a5a:	ea4f 5313 	mov.w	r3, r3, lsr #20
     a5e:	f103 0301 	add.w	r3, r3, #1
     a62:	fbb2 f2f3 	udiv	r2, r2, r3
     a66:	f240 0374 	movw	r3, #116	; 0x74
     a6a:	f6c1 73ff 	movt	r3, #8191	; 0x1fff
     a6e:	601a      	str	r2, [r3, #0]
  g_flash_clock =  g_core_clock / ((uint32_t)((SIM_CLKDIV1 & SIM_CLKDIV1_OUTDIV4_MASK) >> SIM_CLKDIV1_OUTDIV4_SHIFT)+ 1u);
     a70:	f240 0368 	movw	r3, #104	; 0x68
     a74:	f6c1 73ff 	movt	r3, #8191	; 0x1fff
     a78:	681a      	ldr	r2, [r3, #0]
     a7a:	f44f 43e0 	mov.w	r3, #28672	; 0x7000
     a7e:	f2c4 0304 	movt	r3, #16388	; 0x4004
     a82:	f503 5382 	add.w	r3, r3, #4160	; 0x1040
     a86:	f103 0304 	add.w	r3, r3, #4
     a8a:	681b      	ldr	r3, [r3, #0]
     a8c:	f403 2370 	and.w	r3, r3, #983040	; 0xf0000
     a90:	ea4f 4313 	mov.w	r3, r3, lsr #16
     a94:	f103 0301 	add.w	r3, r3, #1
     a98:	fbb2 f2f3 	udiv	r2, r2, r3
     a9c:	f240 0370 	movw	r3, #112	; 0x70
     aa0:	f6c1 73ff 	movt	r3, #8191	; 0x1fff
     aa4:	601a      	str	r2, [r3, #0]
 
    //初始化系统终端
  systemTerm ();
     aa6:	f000 f971 	bl	d8c <systemTerm>
}
     aaa:	bd80      	pop	{r7, pc}

00000aac <SystemCoreClockUpdate>:
 *
 * @brief  更新全局变量SystemCoreClock的值，以便获取最新的系统内核频率。
 *         
 */
void SystemCoreClockUpdate (void) 
{
     aac:	b480      	push	{r7}
     aae:	b083      	sub	sp, #12
     ab0:	af00      	add	r7, sp, #0
    uint32_t temp;
    temp =  CPU_XTAL_CLK_HZ *((uint32_t)(MCG_C6 & MCG_C6_VDIV_MASK) + 16u );
     ab2:	f44f 4380 	mov.w	r3, #16384	; 0x4000
     ab6:	f2c4 0306 	movt	r3, #16390	; 0x4006
     aba:	795b      	ldrb	r3, [r3, #5]
     abc:	b2db      	uxtb	r3, r3
     abe:	f003 021f 	and.w	r2, r3, #31
     ac2:	f24f 0380 	movw	r3, #61568	; 0xf080
     ac6:	f2c0 23fa 	movt	r3, #762	; 0x2fa
     aca:	fb03 f202 	mul.w	r2, r3, r2
     ace:	f44f 6300 	mov.w	r3, #2048	; 0x800
     ad2:	f6c2 73af 	movt	r3, #12207	; 0x2faf
     ad6:	18d3      	adds	r3, r2, r3
     ad8:	607b      	str	r3, [r7, #4]
    temp = (uint32_t)(temp/((uint32_t)(MCG_C5 & MCG_C5_PRDIV_MASK) +1u ))/2;
     ada:	f44f 4380 	mov.w	r3, #16384	; 0x4000
     ade:	f2c4 0306 	movt	r3, #16390	; 0x4006
     ae2:	791b      	ldrb	r3, [r3, #4]
     ae4:	b2db      	uxtb	r3, r3
     ae6:	f003 0307 	and.w	r3, r3, #7
     aea:	f103 0301 	add.w	r3, r3, #1
     aee:	687a      	ldr	r2, [r7, #4]
     af0:	fbb2 f3f3 	udiv	r3, r2, r3
     af4:	ea4f 0353 	mov.w	r3, r3, lsr #1
     af8:	607b      	str	r3, [r7, #4]
    SystemCoreClock = temp;
     afa:	f240 0300 	movw	r3, #0
     afe:	f6c1 73ff 	movt	r3, #8191	; 0x1fff
     b02:	687a      	ldr	r2, [r7, #4]
     b04:	601a      	str	r2, [r3, #0]
}
     b06:	f107 070c 	add.w	r7, r7, #12
     b0a:	46bd      	mov	sp, r7
     b0c:	bc80      	pop	{r7}
     b0e:	4770      	bx	lr

00000b10 <enable_irq>:
/*
 * 使能中断
 */

void enable_irq (int irq)
{
     b10:	b480      	push	{r7}
     b12:	b085      	sub	sp, #20
     b14:	af00      	add	r7, sp, #0
     b16:	6078      	str	r0, [r7, #4]
    int div;
    if (irq > 105)
     b18:	687b      	ldr	r3, [r7, #4]
     b1a:	2b69      	cmp	r3, #105	; 0x69
     b1c:	dd02      	ble.n	b24 <enable_irq+0x14>
        irq = 105;
     b1e:	f04f 0369 	mov.w	r3, #105	; 0x69
     b22:	607b      	str	r3, [r7, #4]
    div = irq / 32;
     b24:	687b      	ldr	r3, [r7, #4]
     b26:	2b00      	cmp	r3, #0
     b28:	da01      	bge.n	b2e <enable_irq+0x1e>
     b2a:	f103 031f 	add.w	r3, r3, #31
     b2e:	ea4f 1363 	mov.w	r3, r3, asr #5
     b32:	60fb      	str	r3, [r7, #12]
    switch (div)
     b34:	68fb      	ldr	r3, [r7, #12]
     b36:	2b03      	cmp	r3, #3
     b38:	f200 80a8 	bhi.w	c8c <enable_irq+0x17c>
     b3c:	a201      	add	r2, pc, #4	; (adr r2, b44 <enable_irq+0x34>)
     b3e:	f852 f023 	ldr.w	pc, [r2, r3, lsl #2]
     b42:	bf00      	nop
     b44:	00000b55 	andeq	r0, r0, r5, asr fp
     b48:	00000ba3 	andeq	r0, r0, r3, lsr #23
     b4c:	00000bf1 	strdeq	r0, [r0], -r1
     b50:	00000c3f 	andeq	r0, r0, pc, lsr ip
    {
        case 0x0:
            NVICICPR0 |= 1 << (irq & 0x1F);
     b54:	f44f 4361 	mov.w	r3, #57600	; 0xe100
     b58:	f2ce 0300 	movt	r3, #57344	; 0xe000
     b5c:	f44f 4261 	mov.w	r2, #57600	; 0xe100
     b60:	f2ce 0200 	movt	r2, #57344	; 0xe000
     b64:	f8d2 1180 	ldr.w	r1, [r2, #384]	; 0x180
     b68:	687a      	ldr	r2, [r7, #4]
     b6a:	f002 021f 	and.w	r2, r2, #31
     b6e:	f04f 0001 	mov.w	r0, #1
     b72:	fa00 f202 	lsl.w	r2, r0, r2
     b76:	430a      	orrs	r2, r1
     b78:	f8c3 2180 	str.w	r2, [r3, #384]	; 0x180
            NVICISER0 |= 1 << (irq & 0x1F);
     b7c:	f44f 4361 	mov.w	r3, #57600	; 0xe100
     b80:	f2ce 0300 	movt	r3, #57344	; 0xe000
     b84:	f44f 4261 	mov.w	r2, #57600	; 0xe100
     b88:	f2ce 0200 	movt	r2, #57344	; 0xe000
     b8c:	6811      	ldr	r1, [r2, #0]
     b8e:	687a      	ldr	r2, [r7, #4]
     b90:	f002 021f 	and.w	r2, r2, #31
     b94:	f04f 0001 	mov.w	r0, #1
     b98:	fa00 f202 	lsl.w	r2, r0, r2
     b9c:	430a      	orrs	r2, r1
     b9e:	601a      	str	r2, [r3, #0]
            break;
     ba0:	e074      	b.n	c8c <enable_irq+0x17c>
        case 0x1:
            NVICICPR1 |= 1 << (irq & 0x1F);
     ba2:	f44f 4361 	mov.w	r3, #57600	; 0xe100
     ba6:	f2ce 0300 	movt	r3, #57344	; 0xe000
     baa:	f44f 4261 	mov.w	r2, #57600	; 0xe100
     bae:	f2ce 0200 	movt	r2, #57344	; 0xe000
     bb2:	f8d2 1184 	ldr.w	r1, [r2, #388]	; 0x184
     bb6:	687a      	ldr	r2, [r7, #4]
     bb8:	f002 021f 	and.w	r2, r2, #31
     bbc:	f04f 0001 	mov.w	r0, #1
     bc0:	fa00 f202 	lsl.w	r2, r0, r2
     bc4:	430a      	orrs	r2, r1
     bc6:	f8c3 2184 	str.w	r2, [r3, #388]	; 0x184
            NVICISER1 |= 1 << (irq & 0x1F);
     bca:	f44f 4361 	mov.w	r3, #57600	; 0xe100
     bce:	f2ce 0300 	movt	r3, #57344	; 0xe000
     bd2:	f44f 4261 	mov.w	r2, #57600	; 0xe100
     bd6:	f2ce 0200 	movt	r2, #57344	; 0xe000
     bda:	6851      	ldr	r1, [r2, #4]
     bdc:	687a      	ldr	r2, [r7, #4]
     bde:	f002 021f 	and.w	r2, r2, #31
     be2:	f04f 0001 	mov.w	r0, #1
     be6:	fa00 f202 	lsl.w	r2, r0, r2
     bea:	430a      	orrs	r2, r1
     bec:	605a      	str	r2, [r3, #4]
            break;
     bee:	e04d      	b.n	c8c <enable_irq+0x17c>
        case 0x2:
            NVICICPR2 |= 1 << (irq & 0x1F);
     bf0:	f44f 4361 	mov.w	r3, #57600	; 0xe100
     bf4:	f2ce 0300 	movt	r3, #57344	; 0xe000
     bf8:	f44f 4261 	mov.w	r2, #57600	; 0xe100
     bfc:	f2ce 0200 	movt	r2, #57344	; 0xe000
     c00:	f8d2 1188 	ldr.w	r1, [r2, #392]	; 0x188
     c04:	687a      	ldr	r2, [r7, #4]
     c06:	f002 021f 	and.w	r2, r2, #31
     c0a:	f04f 0001 	mov.w	r0, #1
     c0e:	fa00 f202 	lsl.w	r2, r0, r2
     c12:	430a      	orrs	r2, r1
     c14:	f8c3 2188 	str.w	r2, [r3, #392]	; 0x188
            NVICISER2 |= 1 << (irq & 0x1F);
     c18:	f44f 4361 	mov.w	r3, #57600	; 0xe100
     c1c:	f2ce 0300 	movt	r3, #57344	; 0xe000
     c20:	f44f 4261 	mov.w	r2, #57600	; 0xe100
     c24:	f2ce 0200 	movt	r2, #57344	; 0xe000
     c28:	6891      	ldr	r1, [r2, #8]
     c2a:	687a      	ldr	r2, [r7, #4]
     c2c:	f002 021f 	and.w	r2, r2, #31
     c30:	f04f 0001 	mov.w	r0, #1
     c34:	fa00 f202 	lsl.w	r2, r0, r2
     c38:	430a      	orrs	r2, r1
     c3a:	609a      	str	r2, [r3, #8]
            break;
     c3c:	e026      	b.n	c8c <enable_irq+0x17c>
        case 0x3:
            NVICICPR3 |= 1 << (irq & 0x1F);
     c3e:	f44f 4361 	mov.w	r3, #57600	; 0xe100
     c42:	f2ce 0300 	movt	r3, #57344	; 0xe000
     c46:	f44f 4261 	mov.w	r2, #57600	; 0xe100
     c4a:	f2ce 0200 	movt	r2, #57344	; 0xe000
     c4e:	f8d2 118c 	ldr.w	r1, [r2, #396]	; 0x18c
     c52:	687a      	ldr	r2, [r7, #4]
     c54:	f002 021f 	and.w	r2, r2, #31
     c58:	f04f 0001 	mov.w	r0, #1
     c5c:	fa00 f202 	lsl.w	r2, r0, r2
     c60:	430a      	orrs	r2, r1
     c62:	f8c3 218c 	str.w	r2, [r3, #396]	; 0x18c
            NVICISER3 |= 1 << (irq & 0x1F);
     c66:	f44f 4361 	mov.w	r3, #57600	; 0xe100
     c6a:	f2ce 0300 	movt	r3, #57344	; 0xe000
     c6e:	f44f 4261 	mov.w	r2, #57600	; 0xe100
     c72:	f2ce 0200 	movt	r2, #57344	; 0xe000
     c76:	68d1      	ldr	r1, [r2, #12]
     c78:	687a      	ldr	r2, [r7, #4]
     c7a:	f002 021f 	and.w	r2, r2, #31
     c7e:	f04f 0001 	mov.w	r0, #1
     c82:	fa00 f202 	lsl.w	r2, r0, r2
     c86:	430a      	orrs	r2, r1
     c88:	60da      	str	r2, [r3, #12]
            break;
     c8a:	bf00      	nop
    }
}
     c8c:	f107 0714 	add.w	r7, r7, #20
     c90:	46bd      	mov	sp, r7
     c92:	bc80      	pop	{r7}
     c94:	4770      	bx	lr
     c96:	bf00      	nop

00000c98 <disable_irq>:
/*
 * 关闭中断
 */

void disable_irq (int irq)
{
     c98:	b480      	push	{r7}
     c9a:	b085      	sub	sp, #20
     c9c:	af00      	add	r7, sp, #0
     c9e:	6078      	str	r0, [r7, #4]
    int div;
    if (irq > 105)
     ca0:	687b      	ldr	r3, [r7, #4]
     ca2:	2b69      	cmp	r3, #105	; 0x69
     ca4:	dd02      	ble.n	cac <disable_irq+0x14>
        irq = 105;
     ca6:	f04f 0369 	mov.w	r3, #105	; 0x69
     caa:	607b      	str	r3, [r7, #4]
    div = irq / 32;
     cac:	687b      	ldr	r3, [r7, #4]
     cae:	2b00      	cmp	r3, #0
     cb0:	da01      	bge.n	cb6 <disable_irq+0x1e>
     cb2:	f103 031f 	add.w	r3, r3, #31
     cb6:	ea4f 1363 	mov.w	r3, r3, asr #5
     cba:	60fb      	str	r3, [r7, #12]
    switch (div)
     cbc:	68fb      	ldr	r3, [r7, #12]
     cbe:	2b03      	cmp	r3, #3
     cc0:	d85e      	bhi.n	d80 <disable_irq+0xe8>
     cc2:	a201      	add	r2, pc, #4	; (adr r2, cc8 <disable_irq+0x30>)
     cc4:	f852 f023 	ldr.w	pc, [r2, r3, lsl #2]
     cc8:	00000cd9 	ldrdeq	r0, [r0], -r9
     ccc:	00000d03 	andeq	r0, r0, r3, lsl #26
     cd0:	00000d2d 	andeq	r0, r0, sp, lsr #26
     cd4:	00000d57 	andeq	r0, r0, r7, asr sp
    {
        case 0x0:
            NVICICPR0 |= 1 << (irq & 0x1F);
     cd8:	f44f 4361 	mov.w	r3, #57600	; 0xe100
     cdc:	f2ce 0300 	movt	r3, #57344	; 0xe000
     ce0:	f44f 4261 	mov.w	r2, #57600	; 0xe100
     ce4:	f2ce 0200 	movt	r2, #57344	; 0xe000
     ce8:	f8d2 1180 	ldr.w	r1, [r2, #384]	; 0x180
     cec:	687a      	ldr	r2, [r7, #4]
     cee:	f002 021f 	and.w	r2, r2, #31
     cf2:	f04f 0001 	mov.w	r0, #1
     cf6:	fa00 f202 	lsl.w	r2, r0, r2
     cfa:	430a      	orrs	r2, r1
     cfc:	f8c3 2180 	str.w	r2, [r3, #384]	; 0x180
            break;
     d00:	e03e      	b.n	d80 <disable_irq+0xe8>
        case 0x1:
            NVICICPR1 |= 1 << (irq & 0x1F);
     d02:	f44f 4361 	mov.w	r3, #57600	; 0xe100
     d06:	f2ce 0300 	movt	r3, #57344	; 0xe000
     d0a:	f44f 4261 	mov.w	r2, #57600	; 0xe100
     d0e:	f2ce 0200 	movt	r2, #57344	; 0xe000
     d12:	f8d2 1184 	ldr.w	r1, [r2, #388]	; 0x184
     d16:	687a      	ldr	r2, [r7, #4]
     d18:	f002 021f 	and.w	r2, r2, #31
     d1c:	f04f 0001 	mov.w	r0, #1
     d20:	fa00 f202 	lsl.w	r2, r0, r2
     d24:	430a      	orrs	r2, r1
     d26:	f8c3 2184 	str.w	r2, [r3, #388]	; 0x184
            break;
     d2a:	e029      	b.n	d80 <disable_irq+0xe8>
        case 0x2:
            NVICICPR2 |= 1 << (irq & 0x1F);
     d2c:	f44f 4361 	mov.w	r3, #57600	; 0xe100
     d30:	f2ce 0300 	movt	r3, #57344	; 0xe000
     d34:	f44f 4261 	mov.w	r2, #57600	; 0xe100
     d38:	f2ce 0200 	movt	r2, #57344	; 0xe000
     d3c:	f8d2 1188 	ldr.w	r1, [r2, #392]	; 0x188
     d40:	687a      	ldr	r2, [r7, #4]
     d42:	f002 021f 	and.w	r2, r2, #31
     d46:	f04f 0001 	mov.w	r0, #1
     d4a:	fa00 f202 	lsl.w	r2, r0, r2
     d4e:	430a      	orrs	r2, r1
     d50:	f8c3 2188 	str.w	r2, [r3, #392]	; 0x188
            break;
     d54:	e014      	b.n	d80 <disable_irq+0xe8>
        case 0x3:
            NVICICPR3 |= 1 << (irq & 0x1F);
     d56:	f44f 4361 	mov.w	r3, #57600	; 0xe100
     d5a:	f2ce 0300 	movt	r3, #57344	; 0xe000
     d5e:	f44f 4261 	mov.w	r2, #57600	; 0xe100
     d62:	f2ce 0200 	movt	r2, #57344	; 0xe000
     d66:	f8d2 118c 	ldr.w	r1, [r2, #396]	; 0x18c
     d6a:	687a      	ldr	r2, [r7, #4]
     d6c:	f002 021f 	and.w	r2, r2, #31
     d70:	f04f 0001 	mov.w	r0, #1
     d74:	fa00 f202 	lsl.w	r2, r0, r2
     d78:	430a      	orrs	r2, r1
     d7a:	f8c3 218c 	str.w	r2, [r3, #396]	; 0x18c
            break;
     d7e:	bf00      	nop
    }
}
     d80:	f107 0714 	add.w	r7, r7, #20
     d84:	46bd      	mov	sp, r7
     d86:	bc80      	pop	{r7}
     d88:	4770      	bx	lr
     d8a:	bf00      	nop

00000d8c <systemTerm>:
/*
 * 系统终端初始化函数
 */

 void systemTerm (void)
 {
     d8c:	b580      	push	{r7, lr}
     d8e:	b088      	sub	sp, #32
     d90:	af02      	add	r7, sp, #8
     UART_InitTypeDef uart_init_struct;
     uart_init_struct.UART_Uartx = TERM_PORT;
     d92:	f44f 4320 	mov.w	r3, #40960	; 0xa000
     d96:	f2c4 030e 	movt	r3, #16398	; 0x400e
     d9a:	607b      	str	r3, [r7, #4]
     uart_init_struct.UART_BaudRate = TERM_BAUD;
     d9c:	f44f 33e1 	mov.w	r3, #115200	; 0x1c200
     da0:	60bb      	str	r3, [r7, #8]
     uart_init_struct.UART_RxPin = TERM_RX;
     da2:	f04f 034a 	mov.w	r3, #74	; 0x4a
     da6:	737b      	strb	r3, [r7, #13]
     uart_init_struct.UART_TxPin = TERM_TX;
     da8:	f04f 034b 	mov.w	r3, #75	; 0x4b
     dac:	733b      	strb	r3, [r7, #12]
     uart_init_struct.UART_RxIntEnable = TERM_RX_IRQ;
     dae:	f04f 0300 	mov.w	r3, #0
     db2:	73bb      	strb	r3, [r7, #14]
     uart_init_struct.UART_RxIsr = TERM_RX_FUN;
     db4:	f04f 0300 	mov.w	r3, #0
     db8:	613b      	str	r3, [r7, #16]

     LPLD_UART_Init (uart_init_struct);
     dba:	697b      	ldr	r3, [r7, #20]
     dbc:	9300      	str	r3, [sp, #0]
     dbe:	f107 0304 	add.w	r3, r7, #4
     dc2:	cb0f      	ldmia	r3, {r0, r1, r2, r3}
     dc4:	f006 faba 	bl	733c <LPLD_UART_Init>
#if (TERM_RX_IRQ == TRUE)
     LPLD_UART_EnableIrq (uart_init_struct);
#endif

 }
     dc8:	f107 0718 	add.w	r7, r7, #24
     dcc:	46bd      	mov	sp, r7
     dce:	bd80      	pop	{r7, pc}

00000dd0 <Ov7725_Init>:
//图像状态
volatile IMG_STATUS_e ov7725_eagle_img_flag = IMG_FINISH;

//ov7725初始化 
uint8 Ov7725_Init (void)
{
     dd0:	b580      	push	{r7, lr}
     dd2:	b08e      	sub	sp, #56	; 0x38
     dd4:	af00      	add	r7, sp, #0
    uint16 i = 0;
     dd6:	f04f 0300 	mov.w	r3, #0
     dda:	86fb      	strh	r3, [r7, #54]	; 0x36
    uint8 device_Id = 0;
     ddc:	f04f 0300 	mov.w	r3, #0
     de0:	f887 3035 	strb.w	r3, [r7, #53]	; 0x35
    uint8 reg_Buff[50] = {0};
     de4:	463b      	mov	r3, r7
     de6:	f04f 0200 	mov.w	r2, #0
     dea:	601a      	str	r2, [r3, #0]
     dec:	f103 0304 	add.w	r3, r3, #4
     df0:	f04f 0200 	mov.w	r2, #0
     df4:	601a      	str	r2, [r3, #0]
     df6:	f103 0304 	add.w	r3, r3, #4
     dfa:	f04f 0200 	mov.w	r2, #0
     dfe:	601a      	str	r2, [r3, #0]
     e00:	f103 0304 	add.w	r3, r3, #4
     e04:	f04f 0200 	mov.w	r2, #0
     e08:	601a      	str	r2, [r3, #0]
     e0a:	f103 0304 	add.w	r3, r3, #4
     e0e:	f04f 0200 	mov.w	r2, #0
     e12:	601a      	str	r2, [r3, #0]
     e14:	f103 0304 	add.w	r3, r3, #4
     e18:	f04f 0200 	mov.w	r2, #0
     e1c:	601a      	str	r2, [r3, #0]
     e1e:	f103 0304 	add.w	r3, r3, #4
     e22:	f04f 0200 	mov.w	r2, #0
     e26:	601a      	str	r2, [r3, #0]
     e28:	f103 0304 	add.w	r3, r3, #4
     e2c:	f04f 0200 	mov.w	r2, #0
     e30:	601a      	str	r2, [r3, #0]
     e32:	f103 0304 	add.w	r3, r3, #4
     e36:	f04f 0200 	mov.w	r2, #0
     e3a:	601a      	str	r2, [r3, #0]
     e3c:	f103 0304 	add.w	r3, r3, #4
     e40:	f04f 0200 	mov.w	r2, #0
     e44:	601a      	str	r2, [r3, #0]
     e46:	f103 0304 	add.w	r3, r3, #4
     e4a:	f04f 0200 	mov.w	r2, #0
     e4e:	601a      	str	r2, [r3, #0]
     e50:	f103 0304 	add.w	r3, r3, #4
     e54:	f04f 0200 	mov.w	r2, #0
     e58:	601a      	str	r2, [r3, #0]
     e5a:	f103 0304 	add.w	r3, r3, #4
     e5e:	f04f 0200 	mov.w	r2, #0
     e62:	801a      	strh	r2, [r3, #0]
     e64:	f103 0302 	add.w	r3, r3, #2

    LPLD_SCCB_Init ();
     e68:	f000 fdee 	bl	1a48 <LPLD_SCCB_Init>
    
    Ov7725_Delay();
     e6c:	f000 f8b0 	bl	fd0 <Ov7725_Delay>

    while (!LPLD_SCCB_WriteReg (OV7725_COM7, 0x80))
     e70:	e010      	b.n	e94 <Ov7725_Init+0xc4>
    {
        if (i ++ >= 500)
     e72:	8efa      	ldrh	r2, [r7, #54]	; 0x36
     e74:	f240 13f3 	movw	r3, #499	; 0x1f3
     e78:	429a      	cmp	r2, r3
     e7a:	bf94      	ite	ls
     e7c:	2300      	movls	r3, #0
     e7e:	2301      	movhi	r3, #1
     e80:	b2db      	uxtb	r3, r3
     e82:	8efa      	ldrh	r2, [r7, #54]	; 0x36
     e84:	f102 0201 	add.w	r2, r2, #1
     e88:	86fa      	strh	r2, [r7, #54]	; 0x36
     e8a:	2b00      	cmp	r3, #0
     e8c:	d002      	beq.n	e94 <Ov7725_Init+0xc4>
            return 0;
     e8e:	f04f 0300 	mov.w	r3, #0
     e92:	e098      	b.n	fc6 <Ov7725_Init+0x1f6>

    LPLD_SCCB_Init ();
    
    Ov7725_Delay();

    while (!LPLD_SCCB_WriteReg (OV7725_COM7, 0x80))
     e94:	f04f 0012 	mov.w	r0, #18
     e98:	f04f 0180 	mov.w	r1, #128	; 0x80
     e9c:	f000 fdf4 	bl	1a88 <LPLD_SCCB_WriteReg>
     ea0:	4603      	mov	r3, r0
     ea2:	2b00      	cmp	r3, #0
     ea4:	d0e5      	beq.n	e72 <Ov7725_Init+0xa2>
    {
        if (i ++ >= 500)
            return 0;
    }

    Ov7725_Delay();
     ea6:	f000 f893 	bl	fd0 <Ov7725_Delay>
    
    while (0 == LPLD_SCCB_ReadReg (OV7725_VER, &device_Id, 1));
     eaa:	bf00      	nop
     eac:	f107 0335 	add.w	r3, r7, #53	; 0x35
     eb0:	f04f 000b 	mov.w	r0, #11
     eb4:	4619      	mov	r1, r3
     eb6:	f04f 0201 	mov.w	r2, #1
     eba:	f000 fe19 	bl	1af0 <LPLD_SCCB_ReadReg>
     ebe:	4603      	mov	r3, r0
     ec0:	2b00      	cmp	r3, #0
     ec2:	d0f3      	beq.n	eac <Ov7725_Init+0xdc>

    printf ("You get ID success, SENSOR ID is 0x%x", device_Id);
     ec4:	f897 3035 	ldrb.w	r3, [r7, #53]	; 0x35
     ec8:	f648 4020 	movw	r0, #35872	; 0x8c20
     ecc:	f2c0 0000 	movt	r0, #0
     ed0:	4619      	mov	r1, r3
     ed2:	f007 fb87 	bl	85e4 <printf>
    printf ("nconfig register Number is %d\n", ov7725_eagle_cfgnum);
     ed6:	f240 0366 	movw	r3, #102	; 0x66
     eda:	f6c1 73ff 	movt	r3, #8191	; 0x1fff
     ede:	781b      	ldrb	r3, [r3, #0]
     ee0:	f648 4048 	movw	r0, #35912	; 0x8c48
     ee4:	f2c0 0000 	movt	r0, #0
     ee8:	4619      	mov	r1, r3
     eea:	f007 fb7b 	bl	85e4 <printf>

    //判断摄像头是否为ov7725
    if (device_Id == OV7725_ID)
     eee:	f897 3035 	ldrb.w	r3, [r7, #53]	; 0x35
     ef2:	2b21      	cmp	r3, #33	; 0x21
     ef4:	d162      	bne.n	fbc <Ov7725_Init+0x1ec>
    {
        for (i = 0; i < ov7725_eagle_cfgnum; i++)
     ef6:	f04f 0300 	mov.w	r3, #0
     efa:	86fb      	strh	r3, [r7, #54]	; 0x36
     efc:	e055      	b.n	faa <Ov7725_Init+0x1da>
        {
            if (0 == LPLD_SCCB_WriteReg(ov7725_eagle_reg[i].addr, ov7725_eagle_reg[i].val))
     efe:	8efa      	ldrh	r2, [r7, #54]	; 0x36
     f00:	f240 0304 	movw	r3, #4
     f04:	f6c1 73ff 	movt	r3, #8191	; 0x1fff
     f08:	f813 3012 	ldrb.w	r3, [r3, r2, lsl #1]
     f0c:	4619      	mov	r1, r3
     f0e:	8efb      	ldrh	r3, [r7, #54]	; 0x36
     f10:	f240 0204 	movw	r2, #4
     f14:	f6c1 72ff 	movt	r2, #8191	; 0x1fff
     f18:	ea4f 0343 	mov.w	r3, r3, lsl #1
     f1c:	18d3      	adds	r3, r2, r3
     f1e:	785b      	ldrb	r3, [r3, #1]
     f20:	4608      	mov	r0, r1
     f22:	4619      	mov	r1, r3
     f24:	f000 fdb0 	bl	1a88 <LPLD_SCCB_WriteReg>
     f28:	4603      	mov	r3, r0
     f2a:	2b00      	cmp	r3, #0
     f2c:	d110      	bne.n	f50 <Ov7725_Init+0x180>
            {
               printf ("error: writeReg error 0x%x\n", ov7725_eagle_reg[i].addr);
     f2e:	8efa      	ldrh	r2, [r7, #54]	; 0x36
     f30:	f240 0304 	movw	r3, #4
     f34:	f6c1 73ff 	movt	r3, #8191	; 0x1fff
     f38:	f813 3012 	ldrb.w	r3, [r3, r2, lsl #1]
     f3c:	f648 4068 	movw	r0, #35944	; 0x8c68
     f40:	f2c0 0000 	movt	r0, #0
     f44:	4619      	mov	r1, r3
     f46:	f007 fb4d 	bl	85e4 <printf>
                return 0;
     f4a:	f04f 0300 	mov.w	r3, #0
     f4e:	e03a      	b.n	fc6 <Ov7725_Init+0x1f6>
            }
            if (LPLD_SCCB_ReadReg(ov7725_eagle_reg[i].addr, &reg_Buff[i], 1))
     f50:	8efa      	ldrh	r2, [r7, #54]	; 0x36
     f52:	f240 0304 	movw	r3, #4
     f56:	f6c1 73ff 	movt	r3, #8191	; 0x1fff
     f5a:	f813 2012 	ldrb.w	r2, [r3, r2, lsl #1]
     f5e:	8efb      	ldrh	r3, [r7, #54]	; 0x36
     f60:	4639      	mov	r1, r7
     f62:	18cb      	adds	r3, r1, r3
     f64:	4610      	mov	r0, r2
     f66:	4619      	mov	r1, r3
     f68:	f04f 0201 	mov.w	r2, #1
     f6c:	f000 fdc0 	bl	1af0 <LPLD_SCCB_ReadReg>
     f70:	4603      	mov	r3, r0
     f72:	2b00      	cmp	r3, #0
     f74:	d015      	beq.n	fa2 <Ov7725_Init+0x1d2>
            {
                printf ("writeRe 0x%x success: 0x%x\n", ov7725_eagle_reg[i].addr, reg_Buff[i]);
     f76:	8efa      	ldrh	r2, [r7, #54]	; 0x36
     f78:	f240 0304 	movw	r3, #4
     f7c:	f6c1 73ff 	movt	r3, #8191	; 0x1fff
     f80:	f813 3012 	ldrb.w	r3, [r3, r2, lsl #1]
     f84:	461a      	mov	r2, r3
     f86:	8efb      	ldrh	r3, [r7, #54]	; 0x36
     f88:	f107 0138 	add.w	r1, r7, #56	; 0x38
     f8c:	18cb      	adds	r3, r1, r3
     f8e:	f813 3c38 	ldrb.w	r3, [r3, #-56]
     f92:	f648 4084 	movw	r0, #35972	; 0x8c84
     f96:	f2c0 0000 	movt	r0, #0
     f9a:	4611      	mov	r1, r2
     f9c:	461a      	mov	r2, r3
     f9e:	f007 fb21 	bl	85e4 <printf>
    printf ("nconfig register Number is %d\n", ov7725_eagle_cfgnum);

    //判断摄像头是否为ov7725
    if (device_Id == OV7725_ID)
    {
        for (i = 0; i < ov7725_eagle_cfgnum; i++)
     fa2:	8efb      	ldrh	r3, [r7, #54]	; 0x36
     fa4:	f103 0301 	add.w	r3, r3, #1
     fa8:	86fb      	strh	r3, [r7, #54]	; 0x36
     faa:	f240 0366 	movw	r3, #102	; 0x66
     fae:	f6c1 73ff 	movt	r3, #8191	; 0x1fff
     fb2:	781b      	ldrb	r3, [r3, #0]
     fb4:	8efa      	ldrh	r2, [r7, #54]	; 0x36
     fb6:	429a      	cmp	r2, r3
     fb8:	d3a1      	bcc.n	efe <Ov7725_Init+0x12e>
     fba:	e002      	b.n	fc2 <Ov7725_Init+0x1f2>
            }
        }
    }
    else
    {
        return 0;
     fbc:	f04f 0300 	mov.w	r3, #0
     fc0:	e001      	b.n	fc6 <Ov7725_Init+0x1f6>
    }
    return 1;
     fc2:	f04f 0301 	mov.w	r3, #1

}
     fc6:	4618      	mov	r0, r3
     fc8:	f107 0738 	add.w	r7, r7, #56	; 0x38
     fcc:	46bd      	mov	sp, r7
     fce:	bd80      	pop	{r7, pc}

00000fd0 <Ov7725_Delay>:

//ov7725延时函数
void Ov7725_Delay(void)
{
     fd0:	b480      	push	{r7}
     fd2:	b083      	sub	sp, #12
     fd4:	af00      	add	r7, sp, #0
    uint16 i, n;
    for (i = 0; i < 3000; i++)
     fd6:	f04f 0300 	mov.w	r3, #0
     fda:	80fb      	strh	r3, [r7, #6]
     fdc:	e00f      	b.n	ffe <Ov7725_Delay+0x2e>
    {
        for (n = 0; n < 200; n++)
     fde:	f04f 0300 	mov.w	r3, #0
     fe2:	80bb      	strh	r3, [r7, #4]
     fe4:	e004      	b.n	ff0 <Ov7725_Delay+0x20>
        {
            asm("nop");
     fe6:	bf00      	nop
void Ov7725_Delay(void)
{
    uint16 i, n;
    for (i = 0; i < 3000; i++)
    {
        for (n = 0; n < 200; n++)
     fe8:	88bb      	ldrh	r3, [r7, #4]
     fea:	f103 0301 	add.w	r3, r3, #1
     fee:	80bb      	strh	r3, [r7, #4]
     ff0:	88bb      	ldrh	r3, [r7, #4]
     ff2:	2bc7      	cmp	r3, #199	; 0xc7
     ff4:	d9f7      	bls.n	fe6 <Ov7725_Delay+0x16>

//ov7725延时函数
void Ov7725_Delay(void)
{
    uint16 i, n;
    for (i = 0; i < 3000; i++)
     ff6:	88fb      	ldrh	r3, [r7, #6]
     ff8:	f103 0301 	add.w	r3, r3, #1
     ffc:	80fb      	strh	r3, [r7, #6]
     ffe:	88fa      	ldrh	r2, [r7, #6]
    1000:	f640 33b7 	movw	r3, #2999	; 0xbb7
    1004:	429a      	cmp	r2, r3
    1006:	d9ea      	bls.n	fde <Ov7725_Delay+0xe>
        for (n = 0; n < 200; n++)
        {
            asm("nop");
        }
    }
}
    1008:	f107 070c 	add.w	r7, r7, #12
    100c:	46bd      	mov	sp, r7
    100e:	bc80      	pop	{r7}
    1010:	4770      	bx	lr
    1012:	bf00      	nop

00001014 <Ov7725_eagle_dma>:

//DMA中断触发函数
void Ov7725_eagle_dma (void)
{
    1014:	b580      	push	{r7, lr}
    1016:	b082      	sub	sp, #8
    1018:	af02      	add	r7, sp, #8
    ov7725_eagle_img_flag = IMG_FINISH;
    101a:	f240 0367 	movw	r3, #103	; 0x67
    101e:	f6c1 73ff 	movt	r3, #8191	; 0x1fff
    1022:	f04f 0201 	mov.w	r2, #1
    1026:	701a      	strb	r2, [r3, #0]
    //关闭DMA通道
    DMA_DIS(DMA_CH0);
    1028:	f44f 4300 	mov.w	r3, #32768	; 0x8000
    102c:	f2c4 0300 	movt	r3, #16384	; 0x4000
    1030:	f44f 4200 	mov.w	r2, #32768	; 0x8000
    1034:	f2c4 0200 	movt	r2, #16384	; 0x4000
    1038:	6a52      	ldr	r2, [r2, #36]	; 0x24
    103a:	f022 0201 	bic.w	r2, r2, #1
    103e:	625a      	str	r2, [r3, #36]	; 0x24
    //DMA0->INT |= 0x1u << 0;
    //enable_irq(INT_PORTA - 16);
    //图片进行解压
    Ov7725_img_extract(Pix_Data, img, PHOTO_SIZE/8);
    1040:	f240 20d4 	movw	r0, #724	; 0x2d4
    1044:	f6c1 70ff 	movt	r0, #8191	; 0x1fff
    1048:	f240 017c 	movw	r1, #124	; 0x7c
    104c:	f6c1 71ff 	movt	r1, #8191	; 0x1fff
    1050:	f44f 7216 	mov.w	r2, #600	; 0x258
    1054:	f000 f898 	bl	1188 <Ov7725_img_extract>
    //解压完成标志置位
    ready_send_flag = 1;
    1058:	f240 0378 	movw	r3, #120	; 0x78
    105c:	f6c1 73ff 	movt	r3, #8191	; 0x1fff
    1060:	f04f 0201 	mov.w	r2, #1
    1064:	701a      	strb	r2, [r3, #0]
    get_midline(Pix_Data, 60, 80);
    1066:	f240 20d4 	movw	r0, #724	; 0x2d4
    106a:	f6c1 70ff 	movt	r0, #8191	; 0x1fff
    106e:	f04f 013c 	mov.w	r1, #60	; 0x3c
    1072:	f04f 0250 	mov.w	r2, #80	; 0x50
    1076:	f000 fbf1 	bl	185c <get_midline>
         //重新装载DMA目标地址
        DMA_DADDR(DMA_CH0) = (uint32)img;
    107a:	f44f 4300 	mov.w	r3, #32768	; 0x8000
    107e:	f2c4 0300 	movt	r3, #16384	; 0x4000
    1082:	f240 027c 	movw	r2, #124	; 0x7c
    1086:	f6c1 72ff 	movt	r2, #8191	; 0x1fff
    108a:	f503 5380 	add.w	r3, r3, #4096	; 0x1000
    108e:	f103 0310 	add.w	r3, r3, #16
    1092:	601a      	str	r2, [r3, #0]
   //Ov7725_sendimg(Pix_Data, PHOTO_SIZE);
    //clear PORTA isr set bit
    PORTA_ISFR = ~0;
    1094:	f44f 4310 	mov.w	r3, #36864	; 0x9000
    1098:	f2c4 0304 	movt	r3, #16388	; 0x4004
    109c:	f04f 32ff 	mov.w	r2, #4294967295
    10a0:	f8c3 20a0 	str.w	r2, [r3, #160]	; 0xa0
    LPLD_GPIO_EnableIrq(OV_PTA_init);
    10a4:	f241 53a8 	movw	r3, #5544	; 0x15a8
    10a8:	f6c1 73ff 	movt	r3, #8191	; 0x1fff
    10ac:	691a      	ldr	r2, [r3, #16]
    10ae:	9200      	str	r2, [sp, #0]
    10b0:	cb0f      	ldmia	r3, {r0, r1, r2, r3}
    10b2:	f003 fe99 	bl	4de8 <LPLD_GPIO_EnableIrq>
    //DMA0->INT |= 0x1u << 0;
}
    10b6:	46bd      	mov	sp, r7
    10b8:	bd80      	pop	{r7, pc}
    10ba:	bf00      	nop

000010bc <Ov7725_eagle_vsync>:

//场中断开始判断函数
void Ov7725_eagle_vsync(void)
{
    10bc:	b580      	push	{r7, lr}
    10be:	af00      	add	r7, sp, #0
    //printf ("runing eagle_vsync\n");
    //判断场中断是否开始
    if (ov7725_eagle_img_flag == IMG_START)
    10c0:	f240 0367 	movw	r3, #103	; 0x67
    10c4:	f6c1 73ff 	movt	r3, #8191	; 0x1fff
    10c8:	781b      	ldrb	r3, [r3, #0]
    10ca:	b2db      	uxtb	r3, r3
    10cc:	2b04      	cmp	r3, #4
    10ce:	d124      	bne.n	111a <Ov7725_eagle_vsync+0x5e>
    {
        ov7725_eagle_img_flag = IMG_GATHER;
    10d0:	f240 0367 	movw	r3, #103	; 0x67
    10d4:	f6c1 73ff 	movt	r3, #8191	; 0x1fff
    10d8:	f04f 0203 	mov.w	r2, #3
    10dc:	701a      	strb	r2, [r3, #0]
        disable_irq (INT_PORTA - 16);
    10de:	f04f 0057 	mov.w	r0, #87	; 0x57
    10e2:	f7ff fdd9 	bl	c98 <disable_irq>
        //LPLD_GPIO_DisableIrq(OV_PTA_init);
        //enable_irq (DMA_CH0 + INT_DMA0_DMA16 - 16);
        DMA_EN(DMA_CH0);
    10e6:	f44f 4300 	mov.w	r3, #32768	; 0x8000
    10ea:	f2c4 0300 	movt	r3, #16384	; 0x4000
    10ee:	f44f 4200 	mov.w	r2, #32768	; 0x8000
    10f2:	f2c4 0200 	movt	r2, #16384	; 0x4000
    10f6:	68d2      	ldr	r2, [r2, #12]
    10f8:	f042 0201 	orr.w	r2, r2, #1
    10fc:	60da      	str	r2, [r3, #12]
        //LPLD_DMA_EnableIrq(OV_dma_init);
        //重新装载DMA目标地址
        DMA_DADDR(DMA_CH0) = (uint32)img;
    10fe:	f44f 4300 	mov.w	r3, #32768	; 0x8000
    1102:	f2c4 0300 	movt	r3, #16384	; 0x4000
    1106:	f240 027c 	movw	r2, #124	; 0x7c
    110a:	f6c1 72ff 	movt	r2, #8191	; 0x1fff
    110e:	f503 5380 	add.w	r3, r3, #4096	; 0x1000
    1112:	f103 0310 	add.w	r3, r3, #16
    1116:	601a      	str	r2, [r3, #0]
    1118:	e00a      	b.n	1130 <Ov7725_eagle_vsync+0x74>
    }
    else
    {
        //disable_irq (INT_PORTA);
        //LPLD_GPIO_DisableIrq(OV_PTA_init);
        disable_irq (INT_PORTA - 16);
    111a:	f04f 0057 	mov.w	r0, #87	; 0x57
    111e:	f7ff fdbb 	bl	c98 <disable_irq>
        ov7725_eagle_img_flag = IMG_FAIL;
    1122:	f240 0367 	movw	r3, #103	; 0x67
    1126:	f6c1 73ff 	movt	r3, #8191	; 0x1fff
    112a:	f04f 0202 	mov.w	r2, #2
    112e:	701a      	strb	r2, [r3, #0]
    }
}
    1130:	bd80      	pop	{r7, pc}
    1132:	bf00      	nop

00001134 <Ov7725_eagle_get_img>:

//ov7725开始采集图像
void Ov7725_eagle_get_img(void)
{
    1134:	b580      	push	{r7, lr}
    1136:	b082      	sub	sp, #8
    1138:	af02      	add	r7, sp, #8
    ov7725_eagle_img_flag = IMG_START;
    113a:	f240 0367 	movw	r3, #103	; 0x67
    113e:	f6c1 73ff 	movt	r3, #8191	; 0x1fff
    1142:	f04f 0204 	mov.w	r2, #4
    1146:	701a      	strb	r2, [r3, #0]
    //write 1 clear int 
    PORTA_ISFR = ~0;
    1148:	f44f 4310 	mov.w	r3, #36864	; 0x9000
    114c:	f2c4 0304 	movt	r3, #16388	; 0x4004
    1150:	f04f 32ff 	mov.w	r2, #4294967295
    1154:	f8c3 20a0 	str.w	r2, [r3, #160]	; 0xa0
    DMA_DADDR(DMA_CH0) = (uint32)img;
    1158:	f44f 4300 	mov.w	r3, #32768	; 0x8000
    115c:	f2c4 0300 	movt	r3, #16384	; 0x4000
    1160:	f240 027c 	movw	r2, #124	; 0x7c
    1164:	f6c1 72ff 	movt	r2, #8191	; 0x1fff
    1168:	f503 5380 	add.w	r3, r3, #4096	; 0x1000
    116c:	f103 0310 	add.w	r3, r3, #16
    1170:	601a      	str	r2, [r3, #0]
    LPLD_GPIO_EnableIrq(OV_PTA_init);
    1172:	f241 53a8 	movw	r3, #5544	; 0x15a8
    1176:	f6c1 73ff 	movt	r3, #8191	; 0x1fff
    117a:	691a      	ldr	r2, [r3, #16]
    117c:	9200      	str	r2, [sp, #0]
    117e:	cb0f      	ldmia	r3, {r0, r1, r2, r3}
    1180:	f003 fe32 	bl	4de8 <LPLD_GPIO_EnableIrq>
}
    1184:	46bd      	mov	sp, r7
    1186:	bd80      	pop	{r7, pc}

00001188 <Ov7725_img_extract>:
 *  @param      srclen          二值化图像的占用空间大小
 *  @since      v5.0            img_extract(img, imgbuff,CAMERA_SIZE);
 *  Sample usage:   sendimg(imgbuff, CAMERA_W * CAMERA_H);                    //发送到上位机
 */
void Ov7725_img_extract(uint8 *dst, uint8 *src, uint32 srclen)
{
    1188:	b480      	push	{r7}
    118a:	b087      	sub	sp, #28
    118c:	af00      	add	r7, sp, #0
    118e:	60f8      	str	r0, [r7, #12]
    1190:	60b9      	str	r1, [r7, #8]
    1192:	607a      	str	r2, [r7, #4]
    uint8 colour[2] = {255, 0}; //0 和 1 分别对应的颜色
    1194:	f04f 03ff 	mov.w	r3, #255	; 0xff
    1198:	753b      	strb	r3, [r7, #20]
    119a:	f04f 0300 	mov.w	r3, #0
    119e:	757b      	strb	r3, [r7, #21]
    //注：野火的摄像头 1(or255)表示 白色，0表示 黑色
    uint8 tmpsrc;
    while(srclen --)
    11a0:	e08b      	b.n	12ba <Ov7725_img_extract+0x132>
    {
        tmpsrc = *src++;
    11a2:	68bb      	ldr	r3, [r7, #8]
    11a4:	781b      	ldrb	r3, [r3, #0]
    11a6:	75fb      	strb	r3, [r7, #23]
    11a8:	68bb      	ldr	r3, [r7, #8]
    11aa:	f103 0301 	add.w	r3, r3, #1
    11ae:	60bb      	str	r3, [r7, #8]
        *dst++ = colour[(tmpsrc >> 7) & 0x01];
    11b0:	7dfb      	ldrb	r3, [r7, #23]
    11b2:	ea4f 13d3 	mov.w	r3, r3, lsr #7
    11b6:	b2db      	uxtb	r3, r3
    11b8:	f003 0301 	and.w	r3, r3, #1
    11bc:	f107 0218 	add.w	r2, r7, #24
    11c0:	18d3      	adds	r3, r2, r3
    11c2:	f813 2c04 	ldrb.w	r2, [r3, #-4]
    11c6:	68fb      	ldr	r3, [r7, #12]
    11c8:	701a      	strb	r2, [r3, #0]
    11ca:	68fb      	ldr	r3, [r7, #12]
    11cc:	f103 0301 	add.w	r3, r3, #1
    11d0:	60fb      	str	r3, [r7, #12]
        *dst++ = colour[(tmpsrc >> 6) & 0x01];
    11d2:	7dfb      	ldrb	r3, [r7, #23]
    11d4:	ea4f 1393 	mov.w	r3, r3, lsr #6
    11d8:	b2db      	uxtb	r3, r3
    11da:	f003 0301 	and.w	r3, r3, #1
    11de:	f107 0218 	add.w	r2, r7, #24
    11e2:	18d3      	adds	r3, r2, r3
    11e4:	f813 2c04 	ldrb.w	r2, [r3, #-4]
    11e8:	68fb      	ldr	r3, [r7, #12]
    11ea:	701a      	strb	r2, [r3, #0]
    11ec:	68fb      	ldr	r3, [r7, #12]
    11ee:	f103 0301 	add.w	r3, r3, #1
    11f2:	60fb      	str	r3, [r7, #12]
        *dst++ = colour[(tmpsrc >> 5) & 0x01];
    11f4:	7dfb      	ldrb	r3, [r7, #23]
    11f6:	ea4f 1353 	mov.w	r3, r3, lsr #5
    11fa:	b2db      	uxtb	r3, r3
    11fc:	f003 0301 	and.w	r3, r3, #1
    1200:	f107 0218 	add.w	r2, r7, #24
    1204:	18d3      	adds	r3, r2, r3
    1206:	f813 2c04 	ldrb.w	r2, [r3, #-4]
    120a:	68fb      	ldr	r3, [r7, #12]
    120c:	701a      	strb	r2, [r3, #0]
    120e:	68fb      	ldr	r3, [r7, #12]
    1210:	f103 0301 	add.w	r3, r3, #1
    1214:	60fb      	str	r3, [r7, #12]
        *dst++ = colour[(tmpsrc >> 4) & 0x01];
    1216:	7dfb      	ldrb	r3, [r7, #23]
    1218:	ea4f 1313 	mov.w	r3, r3, lsr #4
    121c:	b2db      	uxtb	r3, r3
    121e:	f003 0301 	and.w	r3, r3, #1
    1222:	f107 0218 	add.w	r2, r7, #24
    1226:	18d3      	adds	r3, r2, r3
    1228:	f813 2c04 	ldrb.w	r2, [r3, #-4]
    122c:	68fb      	ldr	r3, [r7, #12]
    122e:	701a      	strb	r2, [r3, #0]
    1230:	68fb      	ldr	r3, [r7, #12]
    1232:	f103 0301 	add.w	r3, r3, #1
    1236:	60fb      	str	r3, [r7, #12]
        *dst++ = colour[(tmpsrc >> 3) & 0x01];
    1238:	7dfb      	ldrb	r3, [r7, #23]
    123a:	ea4f 03d3 	mov.w	r3, r3, lsr #3
    123e:	b2db      	uxtb	r3, r3
    1240:	f003 0301 	and.w	r3, r3, #1
    1244:	f107 0218 	add.w	r2, r7, #24
    1248:	18d3      	adds	r3, r2, r3
    124a:	f813 2c04 	ldrb.w	r2, [r3, #-4]
    124e:	68fb      	ldr	r3, [r7, #12]
    1250:	701a      	strb	r2, [r3, #0]
    1252:	68fb      	ldr	r3, [r7, #12]
    1254:	f103 0301 	add.w	r3, r3, #1
    1258:	60fb      	str	r3, [r7, #12]
        *dst++ = colour[(tmpsrc >> 2) & 0x01];
    125a:	7dfb      	ldrb	r3, [r7, #23]
    125c:	ea4f 0393 	mov.w	r3, r3, lsr #2
    1260:	b2db      	uxtb	r3, r3
    1262:	f003 0301 	and.w	r3, r3, #1
    1266:	f107 0218 	add.w	r2, r7, #24
    126a:	18d3      	adds	r3, r2, r3
    126c:	f813 2c04 	ldrb.w	r2, [r3, #-4]
    1270:	68fb      	ldr	r3, [r7, #12]
    1272:	701a      	strb	r2, [r3, #0]
    1274:	68fb      	ldr	r3, [r7, #12]
    1276:	f103 0301 	add.w	r3, r3, #1
    127a:	60fb      	str	r3, [r7, #12]
        *dst++ = colour[(tmpsrc >> 1) & 0x01];
    127c:	7dfb      	ldrb	r3, [r7, #23]
    127e:	ea4f 0353 	mov.w	r3, r3, lsr #1
    1282:	b2db      	uxtb	r3, r3
    1284:	f003 0301 	and.w	r3, r3, #1
    1288:	f107 0218 	add.w	r2, r7, #24
    128c:	18d3      	adds	r3, r2, r3
    128e:	f813 2c04 	ldrb.w	r2, [r3, #-4]
    1292:	68fb      	ldr	r3, [r7, #12]
    1294:	701a      	strb	r2, [r3, #0]
    1296:	68fb      	ldr	r3, [r7, #12]
    1298:	f103 0301 	add.w	r3, r3, #1
    129c:	60fb      	str	r3, [r7, #12]
        *dst++ = colour[(tmpsrc >> 0) & 0x01];
    129e:	7dfb      	ldrb	r3, [r7, #23]
    12a0:	f003 0301 	and.w	r3, r3, #1
    12a4:	f107 0218 	add.w	r2, r7, #24
    12a8:	18d3      	adds	r3, r2, r3
    12aa:	f813 2c04 	ldrb.w	r2, [r3, #-4]
    12ae:	68fb      	ldr	r3, [r7, #12]
    12b0:	701a      	strb	r2, [r3, #0]
    12b2:	68fb      	ldr	r3, [r7, #12]
    12b4:	f103 0301 	add.w	r3, r3, #1
    12b8:	60fb      	str	r3, [r7, #12]
void Ov7725_img_extract(uint8 *dst, uint8 *src, uint32 srclen)
{
    uint8 colour[2] = {255, 0}; //0 和 1 分别对应的颜色
    //注：野火的摄像头 1(or255)表示 白色，0表示 黑色
    uint8 tmpsrc;
    while(srclen --)
    12ba:	687b      	ldr	r3, [r7, #4]
    12bc:	2b00      	cmp	r3, #0
    12be:	bf0c      	ite	eq
    12c0:	2300      	moveq	r3, #0
    12c2:	2301      	movne	r3, #1
    12c4:	b2db      	uxtb	r3, r3
    12c6:	687a      	ldr	r2, [r7, #4]
    12c8:	f102 32ff 	add.w	r2, r2, #4294967295
    12cc:	607a      	str	r2, [r7, #4]
    12ce:	2b00      	cmp	r3, #0
    12d0:	f47f af67 	bne.w	11a2 <Ov7725_img_extract+0x1a>
        *dst++ = colour[(tmpsrc >> 3) & 0x01];
        *dst++ = colour[(tmpsrc >> 2) & 0x01];
        *dst++ = colour[(tmpsrc >> 1) & 0x01];
        *dst++ = colour[(tmpsrc >> 0) & 0x01];
    }
}
    12d4:	f107 071c 	add.w	r7, r7, #28
    12d8:	46bd      	mov	sp, r7
    12da:	bc80      	pop	{r7}
    12dc:	4770      	bx	lr
    12de:	bf00      	nop

000012e0 <Ov7725_sendimg>:
 *  @note       不同的上位机，不同的命令，这里使用 eSmartCameraCar软件，
                如果使用其他上位机，则需要修改代码。
 *  Sample usage:   sendimg(imgbuff, CAMERA_W * CAMERA_H);                    //发送到上位机
 */
void Ov7725_sendimg(uint8 *imgaddr, uint32 imgsize)
{
    12e0:	b580      	push	{r7, lr}
    12e2:	b084      	sub	sp, #16
    12e4:	af00      	add	r7, sp, #0
    12e6:	6078      	str	r0, [r7, #4]
    12e8:	6039      	str	r1, [r7, #0]
    uint8 cmd[4] = {0, 255, 1, 0 };    //yy_摄像头串口调试 使用的命令
    12ea:	f648 43a0 	movw	r3, #36000	; 0x8ca0
    12ee:	f2c0 0300 	movt	r3, #0
    12f2:	f107 020c 	add.w	r2, r7, #12
    12f6:	6818      	ldr	r0, [r3, #0]
    12f8:	6010      	str	r0, [r2, #0]
    
    LPLD_UART_PutCharArr(TERM_PORT, (char *)cmd, sizeof(cmd));
    12fa:	f107 030c 	add.w	r3, r7, #12
    12fe:	f44f 4020 	mov.w	r0, #40960	; 0xa000
    1302:	f2c4 000e 	movt	r0, #16398	; 0x400e
    1306:	4619      	mov	r1, r3
    1308:	f04f 0204 	mov.w	r2, #4
    130c:	f006 fac2 	bl	7894 <LPLD_UART_PutCharArr>
    LPLD_UART_PutCharArr(TERM_PORT, (char *)imgaddr, imgsize);
    1310:	683b      	ldr	r3, [r7, #0]
    1312:	f44f 4020 	mov.w	r0, #40960	; 0xa000
    1316:	f2c4 000e 	movt	r0, #16398	; 0x400e
    131a:	6879      	ldr	r1, [r7, #4]
    131c:	461a      	mov	r2, r3
    131e:	f006 fab9 	bl	7894 <LPLD_UART_PutCharArr>

    //uart_putbuff(FIRE_PORT, cmd, sizeof(cmd));    //先发送命令

    //uart_putbuff(FIRE_PORT, imgaddr, imgsize); //再发送图像
}
    1322:	f107 0710 	add.w	r7, r7, #16
    1326:	46bd      	mov	sp, r7
    1328:	bd80      	pop	{r7, pc}
    132a:	bf00      	nop

0000132c <Ov7725_Gpio_Init>:

//OV7725GPIO口初始化
void Ov7725_Gpio_Init(void)
{
    132c:	b580      	push	{r7, lr}
    132e:	b082      	sub	sp, #8
    1330:	af02      	add	r7, sp, #8
    //OV数据口初始化 B0～B7
    OV_PTB_init.GPIO_PTx = PTB;
    1332:	f241 53bc 	movw	r3, #5564	; 0x15bc
    1336:	f6c1 73ff 	movt	r3, #8191	; 0x1fff
    133a:	f24f 0240 	movw	r2, #61504	; 0xf040
    133e:	f2c4 020f 	movt	r2, #16399	; 0x400f
    1342:	601a      	str	r2, [r3, #0]
    OV_PTB_init.GPIO_Dir = DIR_INPUT;
    1344:	f241 53bc 	movw	r3, #5564	; 0x15bc
    1348:	f6c1 73ff 	movt	r3, #8191	; 0x1fff
    134c:	f04f 0200 	mov.w	r2, #0
    1350:	731a      	strb	r2, [r3, #12]
    OV_PTB_init.GPIO_Pins = GPIO_Pin0_7;
    1352:	f241 53bc 	movw	r3, #5564	; 0x15bc
    1356:	f6c1 73ff 	movt	r3, #8191	; 0x1fff
    135a:	f04f 02ff 	mov.w	r2, #255	; 0xff
    135e:	605a      	str	r2, [r3, #4]
    //禁止中断和DMA请求 禁用PULL 输入源下拉
    OV_PTB_init.GPIO_PinControl = IRQC_DIS |
    1360:	f241 53bc 	movw	r3, #5564	; 0x15bc
    1364:	f6c1 73ff 	movt	r3, #8191	; 0x1fff
    1368:	f04f 0202 	mov.w	r2, #2
    136c:	609a      	str	r2, [r3, #8]
                                  INPUT_PULL_DIS|
                                  INPUT_PULL_DOWN;
    LPLD_GPIO_Init (OV_PTB_init);
    136e:	f241 53bc 	movw	r3, #5564	; 0x15bc
    1372:	f6c1 73ff 	movt	r3, #8191	; 0x1fff
    1376:	691a      	ldr	r2, [r3, #16]
    1378:	9200      	str	r2, [sp, #0]
    137a:	cb0f      	ldmia	r3, {r0, r1, r2, r3}
    137c:	f003 fc88 	bl	4c90 <LPLD_GPIO_Init>

    //OV场信号接口初始化 A29 
    OV_PTA_init.GPIO_PTx = PTA;
    1380:	f241 53a8 	movw	r3, #5544	; 0x15a8
    1384:	f6c1 73ff 	movt	r3, #8191	; 0x1fff
    1388:	f44f 4270 	mov.w	r2, #61440	; 0xf000
    138c:	f2c4 020f 	movt	r2, #16399	; 0x400f
    1390:	601a      	str	r2, [r3, #0]
    OV_PTA_init.GPIO_Dir = DIR_INPUT;
    1392:	f241 53a8 	movw	r3, #5544	; 0x15a8
    1396:	f6c1 73ff 	movt	r3, #8191	; 0x1fff
    139a:	f04f 0200 	mov.w	r2, #0
    139e:	731a      	strb	r2, [r3, #12]
    OV_PTA_init.GPIO_Pins = GPIO_Pin29;
    13a0:	f241 53a8 	movw	r3, #5544	; 0x15a8
    13a4:	f6c1 73ff 	movt	r3, #8191	; 0x1fff
    13a8:	f04f 5200 	mov.w	r2, #536870912	; 0x20000000
    13ac:	605a      	str	r2, [r3, #4]
    //场中断IO设置，上升沿触发IR，输入上拉，使能滤波
    OV_PTA_init.GPIO_PinControl = IRQC_RI |
    13ae:	f241 53a8 	movw	r3, #5544	; 0x15a8
    13b2:	f6c1 73ff 	movt	r3, #8191	; 0x1fff
    13b6:	f04f 0213 	mov.w	r2, #19
    13ba:	f2c0 0209 	movt	r2, #9
    13be:	609a      	str	r2, [r3, #8]
                                    INPUT_PULL_UP|
                                    INPUT_PF_EN;
    OV_PTA_init.GPIO_Isr = Ov7725_isr;
    13c0:	f241 53a8 	movw	r3, #5544	; 0x15a8
    13c4:	f6c1 73ff 	movt	r3, #8191	; 0x1fff
    13c8:	f241 524d 	movw	r2, #5453	; 0x154d
    13cc:	f2c0 0200 	movt	r2, #0
    13d0:	611a      	str	r2, [r3, #16]
    LPLD_GPIO_Init (OV_PTA_init);
    13d2:	f241 53a8 	movw	r3, #5544	; 0x15a8
    13d6:	f6c1 73ff 	movt	r3, #8191	; 0x1fff
    13da:	691a      	ldr	r2, [r3, #16]
    13dc:	9200      	str	r2, [sp, #0]
    13de:	cb0f      	ldmia	r3, {r0, r1, r2, r3}
    13e0:	f003 fc56 	bl	4c90 <LPLD_GPIO_Init>

    //OV PCLK信号接口初始化: PTA27-PCLK 
    OV_PTD_init.GPIO_PTx = PTA;
    13e4:	f241 5394 	movw	r3, #5524	; 0x1594
    13e8:	f6c1 73ff 	movt	r3, #8191	; 0x1fff
    13ec:	f44f 4270 	mov.w	r2, #61440	; 0xf000
    13f0:	f2c4 020f 	movt	r2, #16399	; 0x400f
    13f4:	601a      	str	r2, [r3, #0]
    OV_PTD_init.GPIO_Pins = GPIO_Pin27;
    13f6:	f241 5394 	movw	r3, #5524	; 0x1594
    13fa:	f6c1 73ff 	movt	r3, #8191	; 0x1fff
    13fe:	f04f 6200 	mov.w	r2, #134217728	; 0x8000000
    1402:	605a      	str	r2, [r3, #4]
    OV_PTD_init.GPIO_Dir = DIR_INPUT;
    1404:	f241 5394 	movw	r3, #5524	; 0x1594
    1408:	f6c1 73ff 	movt	r3, #8191	; 0x1fff
    140c:	f04f 0200 	mov.w	r2, #0
    1410:	731a      	strb	r2, [r3, #12]
    //PCLK信号，下降沿触发DMA，输入上拉
    OV_PTD_init.GPIO_PinControl = IRQC_DMAFA | INPUT_PULL_UP;
    1412:	f241 5394 	movw	r3, #5524	; 0x1594
    1416:	f6c1 73ff 	movt	r3, #8191	; 0x1fff
    141a:	f04f 0203 	mov.w	r2, #3
    141e:	f2c0 0202 	movt	r2, #2
    1422:	609a      	str	r2, [r3, #8]
    LPLD_GPIO_Init (OV_PTD_init);
    1424:	f241 5394 	movw	r3, #5524	; 0x1594
    1428:	f6c1 73ff 	movt	r3, #8191	; 0x1fff
    142c:	691a      	ldr	r2, [r3, #16]
    142e:	9200      	str	r2, [sp, #0]
    1430:	cb0f      	ldmia	r3, {r0, r1, r2, r3}
    1432:	f003 fc2d 	bl	4c90 <LPLD_GPIO_Init>

}
    1436:	46bd      	mov	sp, r7
    1438:	bd80      	pop	{r7, pc}
    143a:	bf00      	nop

0000143c <Ov7725_Dma_Init>:
 
//OV7725 DMA初始化 
void Ov7725_Dma_Init (void)
{
    143c:	b5f0      	push	{r4, r5, r6, r7, lr}
    143e:	b089      	sub	sp, #36	; 0x24
    1440:	af08      	add	r7, sp, #32
    OV_dma_init.DMA_CHx = DMA_CH0;
    1442:	f241 53d0 	movw	r3, #5584	; 0x15d0
    1446:	f6c1 73ff 	movt	r3, #8191	; 0x1fff
    144a:	f04f 0200 	mov.w	r2, #0
    144e:	701a      	strb	r2, [r3, #0]
    OV_dma_init.DMA_Req = PORTA_DMAREQ;
    1450:	f241 53d0 	movw	r3, #5584	; 0x15d0
    1454:	f6c1 73ff 	movt	r3, #8191	; 0x1fff
    1458:	f04f 0231 	mov.w	r2, #49	; 0x31
    145c:	705a      	strb	r2, [r3, #1]
    OV_dma_init.DMA_MajorLoopCnt = PHOTO_SIZE / 8;
    145e:	f241 53d0 	movw	r3, #5584	; 0x15d0
    1462:	f6c1 73ff 	movt	r3, #8191	; 0x1fff
    1466:	f44f 7216 	mov.w	r2, #600	; 0x258
    146a:	809a      	strh	r2, [r3, #4]
    OV_dma_init.DMA_MinorByteCnt = 1;
    146c:	f241 53d0 	movw	r3, #5584	; 0x15d0
    1470:	f6c1 73ff 	movt	r3, #8191	; 0x1fff
    1474:	f04f 0201 	mov.w	r2, #1
    1478:	609a      	str	r2, [r3, #8]
    
    OV_dma_init.DMA_SourceAddr = (uint32)(&GPIOB_PDIR);
    147a:	f241 53d0 	movw	r3, #5584	; 0x15d0
    147e:	f6c1 73ff 	movt	r3, #8191	; 0x1fff
    1482:	f24f 0250 	movw	r2, #61520	; 0xf050
    1486:	f2c4 020f 	movt	r2, #16399	; 0x400f
    148a:	60da      	str	r2, [r3, #12]
    OV_dma_init.DMA_DestAddr = (uint32)img;
    148c:	f240 027c 	movw	r2, #124	; 0x7c
    1490:	f6c1 72ff 	movt	r2, #8191	; 0x1fff
    1494:	f241 53d0 	movw	r3, #5584	; 0x15d0
    1498:	f6c1 73ff 	movt	r3, #8191	; 0x1fff
    149c:	619a      	str	r2, [r3, #24]
    OV_dma_init.DMA_DestAddrOffset = 1;
    149e:	f241 53d0 	movw	r3, #5584	; 0x15d0
    14a2:	f6c1 73ff 	movt	r3, #8191	; 0x1fff
    14a6:	f04f 0201 	mov.w	r2, #1
    14aa:	83da      	strh	r2, [r3, #30]
    OV_dma_init.DMA_Isr = Ov7725_eagle_dma;
    14ac:	f241 53d0 	movw	r3, #5584	; 0x15d0
    14b0:	f6c1 73ff 	movt	r3, #8191	; 0x1fff
    14b4:	f241 0215 	movw	r2, #4117	; 0x1015
    14b8:	f2c0 0200 	movt	r2, #0
    14bc:	629a      	str	r2, [r3, #40]	; 0x28
    LPLD_DMA_Init (OV_dma_init);
    14be:	f241 56d0 	movw	r6, #5584	; 0x15d0
    14c2:	f6c1 76ff 	movt	r6, #8191	; 0x1fff
    14c6:	466c      	mov	r4, sp
    14c8:	f106 0510 	add.w	r5, r6, #16
    14cc:	cd0f      	ldmia	r5!, {r0, r1, r2, r3}
    14ce:	c40f      	stmia	r4!, {r0, r1, r2, r3}
    14d0:	e895 0007 	ldmia.w	r5, {r0, r1, r2}
    14d4:	e884 0007 	stmia.w	r4, {r0, r1, r2}
    14d8:	e896 000f 	ldmia.w	r6, {r0, r1, r2, r3}
    14dc:	f001 f9e0 	bl	28a0 <LPLD_DMA_Init>

    LPLD_DMA_DisableReq(DMA_CH0);
    14e0:	f44f 4300 	mov.w	r3, #32768	; 0x8000
    14e4:	f2c4 0300 	movt	r3, #16384	; 0x4000
    14e8:	f44f 4200 	mov.w	r2, #32768	; 0x8000
    14ec:	f2c4 0200 	movt	r2, #16384	; 0x4000
    14f0:	68d2      	ldr	r2, [r2, #12]
    14f2:	f022 0201 	bic.w	r2, r2, #1
    14f6:	60da      	str	r2, [r3, #12]
    //disable_irq (INT_PORTA - 16);
    LPLD_GPIO_EnableIrq (OV_PTA_init);
    14f8:	f241 53a8 	movw	r3, #5544	; 0x15a8
    14fc:	f6c1 73ff 	movt	r3, #8191	; 0x1fff
    1500:	691a      	ldr	r2, [r3, #16]
    1502:	9200      	str	r2, [sp, #0]
    1504:	cb0f      	ldmia	r3, {r0, r1, r2, r3}
    1506:	f003 fc6f 	bl	4de8 <LPLD_GPIO_EnableIrq>
    DMA0->INT |= 0x1u <<0;
    150a:	f44f 4300 	mov.w	r3, #32768	; 0x8000
    150e:	f2c4 0300 	movt	r3, #16384	; 0x4000
    1512:	f44f 4200 	mov.w	r2, #32768	; 0x8000
    1516:	f2c4 0200 	movt	r2, #16384	; 0x4000
    151a:	6a52      	ldr	r2, [r2, #36]	; 0x24
    151c:	f042 0201 	orr.w	r2, r2, #1
    1520:	625a      	str	r2, [r3, #36]	; 0x24
    //允许DMA通道传输完成中断
    //enable_irq (DMA_CH0);
    LPLD_DMA_EnableIrq (OV_dma_init);
    1522:	f241 56d0 	movw	r6, #5584	; 0x15d0
    1526:	f6c1 76ff 	movt	r6, #8191	; 0x1fff
    152a:	466c      	mov	r4, sp
    152c:	f106 0510 	add.w	r5, r6, #16
    1530:	cd0f      	ldmia	r5!, {r0, r1, r2, r3}
    1532:	c40f      	stmia	r4!, {r0, r1, r2, r3}
    1534:	e895 0007 	ldmia.w	r5, {r0, r1, r2}
    1538:	e884 0007 	stmia.w	r4, {r0, r1, r2}
    153c:	e896 000f 	ldmia.w	r6, {r0, r1, r2, r3}
    1540:	f001 fc0c 	bl	2d5c <LPLD_DMA_EnableIrq>
    //使能通道x的DMA请求
    //LPLD_DMA_EnableReq(DMA_CH0);
}
    1544:	f107 0704 	add.w	r7, r7, #4
    1548:	46bd      	mov	sp, r7
    154a:	bdf0      	pop	{r4, r5, r6, r7, pc}

0000154c <Ov7725_isr>:

//ov7725中断
void Ov7725_isr (void)
{
    154c:	b580      	push	{r7, lr}
    154e:	b082      	sub	sp, #8
    1550:	af00      	add	r7, sp, #0
    uint8 n = 0;
    1552:	f04f 0300 	mov.w	r3, #0
    1556:	71fb      	strb	r3, [r7, #7]
    while (!PORTA_ISFR);
    1558:	bf00      	nop
    155a:	f44f 4310 	mov.w	r3, #36864	; 0x9000
    155e:	f2c4 0304 	movt	r3, #16388	; 0x4004
    1562:	f8d3 30a0 	ldr.w	r3, [r3, #160]	; 0xa0
    1566:	2b00      	cmp	r3, #0
    1568:	d0f7      	beq.n	155a <Ov7725_isr+0xe>
    uint32 flag = (PORTA->ISFR);
    156a:	f44f 4310 	mov.w	r3, #36864	; 0x9000
    156e:	f2c4 0304 	movt	r3, #16388	; 0x4004
    1572:	f8d3 30a0 	ldr.w	r3, [r3, #160]	; 0xa0
    1576:	603b      	str	r3, [r7, #0]
    (PORTA -> ISFR) = ~0;
    1578:	f44f 4310 	mov.w	r3, #36864	; 0x9000
    157c:	f2c4 0304 	movt	r3, #16388	; 0x4004
    1580:	f04f 32ff 	mov.w	r2, #4294967295
    1584:	f8c3 20a0 	str.w	r2, [r3, #160]	; 0xa0
   
    n = 29;
    1588:	f04f 031d 	mov.w	r3, #29
    158c:	71fb      	strb	r3, [r7, #7]
    //printf ("flag = %x\n", flag);
    if (flag & (1<<n))
    158e:	79fb      	ldrb	r3, [r7, #7]
    1590:	f04f 0201 	mov.w	r2, #1
    1594:	fa02 f303 	lsl.w	r3, r2, r3
    1598:	461a      	mov	r2, r3
    159a:	683b      	ldr	r3, [r7, #0]
    159c:	4013      	ands	r3, r2
    159e:	2b00      	cmp	r3, #0
    15a0:	d016      	beq.n	15d0 <Ov7725_isr+0x84>
    {
        //场中断开始 
        //set 場中断
        ov7725_eagle_img_flag = IMG_START;
    15a2:	f240 0367 	movw	r3, #103	; 0x67
    15a6:	f6c1 73ff 	movt	r3, #8191	; 0x1fff
    15aa:	f04f 0204 	mov.w	r2, #4
    15ae:	701a      	strb	r2, [r3, #0]
        //关闭PORTA中断
        disable_irq (INT_PORTA - 16);
    15b0:	f04f 0057 	mov.w	r0, #87	; 0x57
    15b4:	f7ff fb70 	bl	c98 <disable_irq>
        //LPLD_GPIO_DisableIrq(OV_PTA_init);
        //enable_irq (DMA_CH0 + INT_DMA0_DMA16 - 16);
        //重新装载DMA目标地址
        //DMA_DADDR(DMA_CH0) = (uint32)img;
        //开启DMA通道
        DMA_EN(DMA_CH0);
    15b8:	f44f 4300 	mov.w	r3, #32768	; 0x8000
    15bc:	f2c4 0300 	movt	r3, #16384	; 0x4000
    15c0:	f44f 4200 	mov.w	r2, #32768	; 0x8000
    15c4:	f2c4 0200 	movt	r2, #16384	; 0x4000
    15c8:	68d2      	ldr	r2, [r2, #12]
    15ca:	f042 0201 	orr.w	r2, r2, #1
    15ce:	60da      	str	r2, [r3, #12]
        //LPLD_DMA_EnableIrq(OV_dma_init);
    }
}
    15d0:	f107 0708 	add.w	r7, r7, #8
    15d4:	46bd      	mov	sp, r7
    15d6:	bd80      	pop	{r7, pc}

000015d8 <dma_portx2buff_init>:

//移植野火的函数
void dma_portx2buff_init(uint8 CHn, void *SADDR, void *DADDR, uint8 dma_req, DMA_BYTEn byten, uint32 count, uint32 cfg)
{
    15d8:	b480      	push	{r7}
    15da:	b087      	sub	sp, #28
    15dc:	af00      	add	r7, sp, #0
    15de:	60b9      	str	r1, [r7, #8]
    15e0:	607a      	str	r2, [r7, #4]
    15e2:	4602      	mov	r2, r0
    15e4:	73fa      	strb	r2, [r7, #15]
    15e6:	73bb      	strb	r3, [r7, #14]
    uint8 BYTEs = (byten == DMA_BYTE1 ? 1 : (byten == DMA_BYTE2 ? 2 : (byten == DMA_BYTE4 ? 4 : 16)));
    15e8:	f897 3020 	ldrb.w	r3, [r7, #32]
    15ec:	2b00      	cmp	r3, #0
    15ee:	d010      	beq.n	1612 <dma_portx2buff_init+0x3a>
    15f0:	f897 3020 	ldrb.w	r3, [r7, #32]
    15f4:	2b01      	cmp	r3, #1
    15f6:	d009      	beq.n	160c <dma_portx2buff_init+0x34>
    15f8:	f897 3020 	ldrb.w	r3, [r7, #32]
    15fc:	2b02      	cmp	r3, #2
    15fe:	d102      	bne.n	1606 <dma_portx2buff_init+0x2e>
    1600:	f04f 0304 	mov.w	r3, #4
    1604:	e001      	b.n	160a <dma_portx2buff_init+0x32>
    1606:	f04f 0310 	mov.w	r3, #16
    160a:	e001      	b.n	1610 <dma_portx2buff_init+0x38>
    160c:	f04f 0302 	mov.w	r3, #2
    1610:	e001      	b.n	1616 <dma_portx2buff_init+0x3e>
    1612:	f04f 0301 	mov.w	r3, #1
    1616:	75fb      	strb	r3, [r7, #23]
    
    SIM_SCGC7 |= SIM_SCGC7_DMA_MASK;
    1618:	f44f 43e0 	mov.w	r3, #28672	; 0x7000
    161c:	f2c4 0304 	movt	r3, #16388	; 0x4004
    1620:	f44f 42e0 	mov.w	r2, #28672	; 0x7000
    1624:	f2c4 0204 	movt	r2, #16388	; 0x4004
    1628:	f502 5282 	add.w	r2, r2, #4160	; 0x1040
    162c:	6812      	ldr	r2, [r2, #0]
    162e:	f042 0202 	orr.w	r2, r2, #2
    1632:	f503 5382 	add.w	r3, r3, #4160	; 0x1040
    1636:	601a      	str	r2, [r3, #0]
    SIM_SCGC6 |= SIM_SCGC6_DMAMUX0_MASK;
    1638:	f44f 43e0 	mov.w	r3, #28672	; 0x7000
    163c:	f2c4 0304 	movt	r3, #16388	; 0x4004
    1640:	f44f 42e0 	mov.w	r2, #28672	; 0x7000
    1644:	f2c4 0204 	movt	r2, #16388	; 0x4004
    1648:	f502 5281 	add.w	r2, r2, #4128	; 0x1020
    164c:	f102 021c 	add.w	r2, r2, #28
    1650:	6812      	ldr	r2, [r2, #0]
    1652:	f042 0202 	orr.w	r2, r2, #2
    1656:	f503 5381 	add.w	r3, r3, #4128	; 0x1020
    165a:	f103 031c 	add.w	r3, r3, #28
    165e:	601a      	str	r2, [r3, #0]

    DMA_SADDR(CHn) = (uint32) SADDR;
    1660:	f44f 4300 	mov.w	r3, #32768	; 0x8000
    1664:	f2c4 0300 	movt	r3, #16384	; 0x4000
    1668:	7bf9      	ldrb	r1, [r7, #15]
    166a:	68ba      	ldr	r2, [r7, #8]
    166c:	f101 0180 	add.w	r1, r1, #128	; 0x80
    1670:	ea4f 1141 	mov.w	r1, r1, lsl #5
    1674:	185b      	adds	r3, r3, r1
    1676:	601a      	str	r2, [r3, #0]
    DMA_DADDR(CHn) = (uint32) DADDR;
    1678:	f44f 4300 	mov.w	r3, #32768	; 0x8000
    167c:	f2c4 0300 	movt	r3, #16384	; 0x4000
    1680:	7bf9      	ldrb	r1, [r7, #15]
    1682:	687a      	ldr	r2, [r7, #4]
    1684:	ea4f 1141 	mov.w	r1, r1, lsl #5
    1688:	185b      	adds	r3, r3, r1
    168a:	f503 5380 	add.w	r3, r3, #4096	; 0x1000
    168e:	f103 0310 	add.w	r3, r3, #16
    1692:	601a      	str	r2, [r3, #0]
    DMA_SOFF(CHn) = 0x00u;
    1694:	f44f 4300 	mov.w	r3, #32768	; 0x8000
    1698:	f2c4 0300 	movt	r3, #16384	; 0x4000
    169c:	7bfa      	ldrb	r2, [r7, #15]
    169e:	f102 0280 	add.w	r2, r2, #128	; 0x80
    16a2:	ea4f 1242 	mov.w	r2, r2, lsl #5
    16a6:	189b      	adds	r3, r3, r2
    16a8:	f04f 0200 	mov.w	r2, #0
    16ac:	809a      	strh	r2, [r3, #4]
    DMA_DOFF(CHn) = BYTEs;
    16ae:	f44f 4300 	mov.w	r3, #32768	; 0x8000
    16b2:	f2c4 0300 	movt	r3, #16384	; 0x4000
    16b6:	7bf9      	ldrb	r1, [r7, #15]
    16b8:	7dfa      	ldrb	r2, [r7, #23]
    16ba:	b292      	uxth	r2, r2
    16bc:	ea4f 1141 	mov.w	r1, r1, lsl #5
    16c0:	185b      	adds	r3, r3, r1
    16c2:	f503 5380 	add.w	r3, r3, #4096	; 0x1000
    16c6:	f103 0310 	add.w	r3, r3, #16
    16ca:	809a      	strh	r2, [r3, #4]
    DMA_ATTR(CHn) = (0
    16cc:	f44f 4300 	mov.w	r3, #32768	; 0x8000
    16d0:	f2c4 0300 	movt	r3, #16384	; 0x4000
    16d4:	7bf9      	ldrb	r1, [r7, #15]
                     |DMA_ATTR_SMOD(0x0)
                     |DMA_ATTR_SSIZE(byten)
    16d6:	f897 2020 	ldrb.w	r2, [r7, #32]
    16da:	b292      	uxth	r2, r2
    16dc:	ea4f 2202 	mov.w	r2, r2, lsl #8
    16e0:	b292      	uxth	r2, r2

    DMA_SADDR(CHn) = (uint32) SADDR;
    DMA_DADDR(CHn) = (uint32) DADDR;
    DMA_SOFF(CHn) = 0x00u;
    DMA_DOFF(CHn) = BYTEs;
    DMA_ATTR(CHn) = (0
    16e2:	f402 62e0 	and.w	r2, r2, #1792	; 0x700
    16e6:	b290      	uxth	r0, r2
    16e8:	f897 2020 	ldrb.w	r2, [r7, #32]
    16ec:	b292      	uxth	r2, r2
    16ee:	f002 0207 	and.w	r2, r2, #7
    16f2:	b292      	uxth	r2, r2
    16f4:	4302      	orrs	r2, r0
    16f6:	b292      	uxth	r2, r2
    16f8:	f101 0180 	add.w	r1, r1, #128	; 0x80
    16fc:	ea4f 1141 	mov.w	r1, r1, lsl #5
    1700:	185b      	adds	r3, r3, r1
    1702:	80da      	strh	r2, [r3, #6]
                     |DMA_ATTR_SMOD(0x0)
                     |DMA_ATTR_SSIZE(byten)
                     |DMA_ATTR_DMOD(0x0)
                     |DMA_ATTR_DSIZE(byten)
                    );
    DMA_CITER_ELINKNO(CHn) = DMA_CITER_ELINKNO_CITER(count);
    1704:	f44f 4300 	mov.w	r3, #32768	; 0x8000
    1708:	f2c4 0300 	movt	r3, #16384	; 0x4000
    170c:	7bf9      	ldrb	r1, [r7, #15]
    170e:	6a7a      	ldr	r2, [r7, #36]	; 0x24
    1710:	b292      	uxth	r2, r2
    1712:	ea4f 4242 	mov.w	r2, r2, lsl #17
    1716:	ea4f 4252 	mov.w	r2, r2, lsr #17
    171a:	b292      	uxth	r2, r2
    171c:	ea4f 1141 	mov.w	r1, r1, lsl #5
    1720:	185b      	adds	r3, r3, r1
    1722:	f503 5380 	add.w	r3, r3, #4096	; 0x1000
    1726:	f103 0310 	add.w	r3, r3, #16
    172a:	80da      	strh	r2, [r3, #6]
    DMA_BITER_ELINKNO(CHn) = DMA_BITER_ELINKNO_BITER(count);
    172c:	f44f 4300 	mov.w	r3, #32768	; 0x8000
    1730:	f2c4 0300 	movt	r3, #16384	; 0x4000
    1734:	7bf9      	ldrb	r1, [r7, #15]
    1736:	6a7a      	ldr	r2, [r7, #36]	; 0x24
    1738:	b292      	uxth	r2, r2
    173a:	ea4f 4242 	mov.w	r2, r2, lsl #17
    173e:	ea4f 4252 	mov.w	r2, r2, lsr #17
    1742:	b292      	uxth	r2, r2
    1744:	ea4f 1141 	mov.w	r1, r1, lsl #5
    1748:	185b      	adds	r3, r3, r1
    174a:	f503 5380 	add.w	r3, r3, #4096	; 0x1000
    174e:	f103 0318 	add.w	r3, r3, #24
    1752:	80da      	strh	r2, [r3, #6]

    DMA_CR &= ~DMA_CR_EMLM_MASK;
    1754:	f44f 4300 	mov.w	r3, #32768	; 0x8000
    1758:	f2c4 0300 	movt	r3, #16384	; 0x4000
    175c:	f44f 4200 	mov.w	r2, #32768	; 0x8000
    1760:	f2c4 0200 	movt	r2, #16384	; 0x4000
    1764:	6812      	ldr	r2, [r2, #0]
    1766:	f022 0280 	bic.w	r2, r2, #128	; 0x80
    176a:	601a      	str	r2, [r3, #0]

    DMA_NBYTES_MLNO(CHn) = DMA_NBYTES_MLNO_NBYTES(BYTEs);
    176c:	f44f 4300 	mov.w	r3, #32768	; 0x8000
    1770:	f2c4 0300 	movt	r3, #16384	; 0x4000
    1774:	7bf9      	ldrb	r1, [r7, #15]
    1776:	7dfa      	ldrb	r2, [r7, #23]
    1778:	ea4f 1141 	mov.w	r1, r1, lsl #5
    177c:	185b      	adds	r3, r3, r1
    177e:	f503 5380 	add.w	r3, r3, #4096	; 0x1000
    1782:	f103 0308 	add.w	r3, r3, #8
    1786:	601a      	str	r2, [r3, #0]

    DMA_SLAST(CHn) = 0;
    1788:	f44f 4300 	mov.w	r3, #32768	; 0x8000
    178c:	f2c4 0300 	movt	r3, #16384	; 0x4000
    1790:	7bfa      	ldrb	r2, [r7, #15]
    1792:	ea4f 1242 	mov.w	r2, r2, lsl #5
    1796:	189b      	adds	r3, r3, r2
    1798:	f503 5380 	add.w	r3, r3, #4096	; 0x1000
    179c:	f103 0308 	add.w	r3, r3, #8
    17a0:	f04f 0200 	mov.w	r2, #0
    17a4:	605a      	str	r2, [r3, #4]
    DMA_DLAST_SGA(CHn) = (uint32)((cfg & DADDR_KEEPON) == 0 ? (-count) : 0);
    17a6:	f44f 4300 	mov.w	r3, #32768	; 0x8000
    17aa:	f2c4 0300 	movt	r3, #16384	; 0x4000
    17ae:	7bf9      	ldrb	r1, [r7, #15]
    17b0:	6aba      	ldr	r2, [r7, #40]	; 0x28
    17b2:	f002 0201 	and.w	r2, r2, #1
    17b6:	2a00      	cmp	r2, #0
    17b8:	d103      	bne.n	17c2 <dma_portx2buff_init+0x1ea>
    17ba:	6a7a      	ldr	r2, [r7, #36]	; 0x24
    17bc:	f1c2 0200 	rsb	r2, r2, #0
    17c0:	e001      	b.n	17c6 <dma_portx2buff_init+0x1ee>
    17c2:	f04f 0200 	mov.w	r2, #0
    17c6:	ea4f 1141 	mov.w	r1, r1, lsl #5
    17ca:	185b      	adds	r3, r3, r1
    17cc:	f503 5380 	add.w	r3, r3, #4096	; 0x1000
    17d0:	f103 0318 	add.w	r3, r3, #24
    17d4:	601a      	str	r2, [r3, #0]
    DMA_CSR(CHn) = (0
    17d6:	f44f 4300 	mov.w	r3, #32768	; 0x8000
    17da:	f2c4 0300 	movt	r3, #16384	; 0x4000
    17de:	7bfa      	ldrb	r2, [r7, #15]
    17e0:	ea4f 1242 	mov.w	r2, r2, lsl #5
    17e4:	189b      	adds	r3, r3, r2
    17e6:	f503 5380 	add.w	r3, r3, #4096	; 0x1000
    17ea:	f103 0318 	add.w	r3, r3, #24
    17ee:	f24c 020a 	movw	r2, #49162	; 0xc00a
    17f2:	809a      	strh	r2, [r3, #4]
                    |DMA_CSR_BWC(3)
                    |DMA_CSR_DREQ_MASK
                    |DMA_CSR_INTMAJOR_MASK
                   );

    DMAMUX_CHCFG_REG(DMAMUX0_BASE_PTR, CHn) = (0                
    17f4:	f44f 5380 	mov.w	r3, #4096	; 0x1000
    17f8:	f2c4 0302 	movt	r3, #16386	; 0x4002
    17fc:	7bfa      	ldrb	r2, [r7, #15]
    17fe:	7bb9      	ldrb	r1, [r7, #14]
    1800:	f001 013f 	and.w	r1, r1, #63	; 0x3f
    1804:	b2c9      	uxtb	r1, r1
    1806:	f061 017f 	orn	r1, r1, #127	; 0x7f
    180a:	b2c9      	uxtb	r1, r1
    180c:	5499      	strb	r1, [r3, r2]
    |DMAMUX_CHCFG_ENBL_MASK
    |DMAMUX_CHCFG_SOURCE(dma_req));
    DMA_DIS(CHn);
    180e:	f44f 4300 	mov.w	r3, #32768	; 0x8000
    1812:	f2c4 0300 	movt	r3, #16384	; 0x4000
    1816:	f44f 4200 	mov.w	r2, #32768	; 0x8000
    181a:	f2c4 0200 	movt	r2, #16384	; 0x4000
    181e:	6a51      	ldr	r1, [r2, #36]	; 0x24
    1820:	7bfa      	ldrb	r2, [r7, #15]
    1822:	f04f 0001 	mov.w	r0, #1
    1826:	fa00 f202 	lsl.w	r2, r0, r2
    182a:	ea6f 0202 	mvn.w	r2, r2
    182e:	400a      	ands	r2, r1
    1830:	625a      	str	r2, [r3, #36]	; 0x24
    DMA_IRQ_CLEAN(CHn);
    1832:	f44f 4300 	mov.w	r3, #32768	; 0x8000
    1836:	f2c4 0300 	movt	r3, #16384	; 0x4000
    183a:	f44f 4200 	mov.w	r2, #32768	; 0x8000
    183e:	f2c4 0200 	movt	r2, #16384	; 0x4000
    1842:	6a51      	ldr	r1, [r2, #36]	; 0x24
    1844:	7bfa      	ldrb	r2, [r7, #15]
    1846:	f04f 0001 	mov.w	r0, #1
    184a:	fa00 f202 	lsl.w	r2, r0, r2
    184e:	430a      	orrs	r2, r1
    1850:	625a      	str	r2, [r3, #36]	; 0x24
}
    1852:	f107 071c 	add.w	r7, r7, #28
    1856:	46bd      	mov	sp, r7
    1858:	bc80      	pop	{r7}
    185a:	4770      	bx	lr

0000185c <get_midline>:


//提取中线
void get_midline(uint8 *img, uint8 h, uint8 w)
{
    185c:	b480      	push	{r7}
    185e:	b085      	sub	sp, #20
    1860:	af00      	add	r7, sp, #0
    1862:	6078      	str	r0, [r7, #4]
    1864:	4613      	mov	r3, r2
    1866:	460a      	mov	r2, r1
    1868:	70fa      	strb	r2, [r7, #3]
    186a:	70bb      	strb	r3, [r7, #2]
    int16 p = 0, i = 0, line_mid = 39;
    186c:	f04f 0300 	mov.w	r3, #0
    1870:	81fb      	strh	r3, [r7, #14]
    1872:	f04f 0300 	mov.w	r3, #0
    1876:	81bb      	strh	r3, [r7, #12]
    1878:	f04f 0327 	mov.w	r3, #39	; 0x27
    187c:	817b      	strh	r3, [r7, #10]
    int8 side_left = 0, side_right = 79;
    187e:	f04f 0300 	mov.w	r3, #0
    1882:	727b      	strb	r3, [r7, #9]
    1884:	f04f 034f 	mov.w	r3, #79	; 0x4f
    1888:	723b      	strb	r3, [r7, #8]

    if (img[(h-1)*w + line_mid] == 0xff)
    188a:	78fb      	ldrb	r3, [r7, #3]
    188c:	f103 33ff 	add.w	r3, r3, #4294967295
    1890:	78ba      	ldrb	r2, [r7, #2]
    1892:	fb02 f203 	mul.w	r2, r2, r3
    1896:	f9b7 300a 	ldrsh.w	r3, [r7, #10]
    189a:	18d3      	adds	r3, r2, r3
    189c:	687a      	ldr	r2, [r7, #4]
    189e:	18d3      	adds	r3, r2, r3
    18a0:	781b      	ldrb	r3, [r3, #0]
    18a2:	2bff      	cmp	r3, #255	; 0xff
    18a4:	f040 80ca 	bne.w	1a3c <get_midline+0x1e0>
    {
        for (i = h - 1; i >= 0; i --)
    18a8:	78fb      	ldrb	r3, [r7, #3]
    18aa:	b29b      	uxth	r3, r3
    18ac:	f103 33ff 	add.w	r3, r3, #4294967295
    18b0:	b29b      	uxth	r3, r3
    18b2:	81bb      	strh	r3, [r7, #12]
    18b4:	e0bd      	b.n	1a32 <get_midline+0x1d6>
        {
            for (p = line_mid - 1; p > 0; p --)
    18b6:	897b      	ldrh	r3, [r7, #10]
    18b8:	f103 33ff 	add.w	r3, r3, #4294967295
    18bc:	b29b      	uxth	r3, r3
    18be:	81fb      	strh	r3, [r7, #14]
    18c0:	e045      	b.n	194e <get_midline+0xf2>
            {
                if (img[i * w + p] == 0)
    18c2:	f9b7 300c 	ldrsh.w	r3, [r7, #12]
    18c6:	78ba      	ldrb	r2, [r7, #2]
    18c8:	fb02 f203 	mul.w	r2, r2, r3
    18cc:	f9b7 300e 	ldrsh.w	r3, [r7, #14]
    18d0:	18d3      	adds	r3, r2, r3
    18d2:	687a      	ldr	r2, [r7, #4]
    18d4:	18d3      	adds	r3, r2, r3
    18d6:	781b      	ldrb	r3, [r3, #0]
    18d8:	2b00      	cmp	r3, #0
    18da:	d134      	bne.n	1946 <get_midline+0xea>
                    if ((img[i * w + p - 1] == 0) 
    18dc:	f9b7 300c 	ldrsh.w	r3, [r7, #12]
    18e0:	78ba      	ldrb	r2, [r7, #2]
    18e2:	fb02 f203 	mul.w	r2, r2, r3
    18e6:	f9b7 300e 	ldrsh.w	r3, [r7, #14]
    18ea:	18d3      	adds	r3, r2, r3
    18ec:	f103 33ff 	add.w	r3, r3, #4294967295
    18f0:	687a      	ldr	r2, [r7, #4]
    18f2:	18d3      	adds	r3, r2, r3
    18f4:	781b      	ldrb	r3, [r3, #0]
    18f6:	2b00      	cmp	r3, #0
    18f8:	d125      	bne.n	1946 <get_midline+0xea>
                            && (line_mid-p-1>= 0))
    18fa:	f9b7 200a 	ldrsh.w	r2, [r7, #10]
    18fe:	f9b7 300e 	ldrsh.w	r3, [r7, #14]
    1902:	1ad3      	subs	r3, r2, r3
    1904:	f103 33ff 	add.w	r3, r3, #4294967295
    1908:	2b00      	cmp	r3, #0
    190a:	db1c      	blt.n	1946 <get_midline+0xea>
                    {
                        side_left = p;
    190c:	89fb      	ldrh	r3, [r7, #14]
    190e:	727b      	strb	r3, [r7, #9]
                        p = p - 2;
    1910:	89fb      	ldrh	r3, [r7, #14]
    1912:	f1a3 0302 	sub.w	r3, r3, #2
    1916:	b29b      	uxth	r3, r3
    1918:	81fb      	strh	r3, [r7, #14]
                        for (; p >= 0; p --)
    191a:	e010      	b.n	193e <get_midline+0xe2>
                            img[i * w + p] = 0;
    191c:	f9b7 300c 	ldrsh.w	r3, [r7, #12]
    1920:	78ba      	ldrb	r2, [r7, #2]
    1922:	fb02 f203 	mul.w	r2, r2, r3
    1926:	f9b7 300e 	ldrsh.w	r3, [r7, #14]
    192a:	18d3      	adds	r3, r2, r3
    192c:	687a      	ldr	r2, [r7, #4]
    192e:	18d3      	adds	r3, r2, r3
    1930:	f04f 0200 	mov.w	r2, #0
    1934:	701a      	strb	r2, [r3, #0]
                    if ((img[i * w + p - 1] == 0) 
                            && (line_mid-p-1>= 0))
                    {
                        side_left = p;
                        p = p - 2;
                        for (; p >= 0; p --)
    1936:	89fb      	ldrh	r3, [r7, #14]
    1938:	f103 33ff 	add.w	r3, r3, #4294967295
    193c:	81fb      	strh	r3, [r7, #14]
    193e:	f9b7 300e 	ldrsh.w	r3, [r7, #14]
    1942:	2b00      	cmp	r3, #0
    1944:	daea      	bge.n	191c <get_midline+0xc0>

    if (img[(h-1)*w + line_mid] == 0xff)
    {
        for (i = h - 1; i >= 0; i --)
        {
            for (p = line_mid - 1; p > 0; p --)
    1946:	89fb      	ldrh	r3, [r7, #14]
    1948:	f103 33ff 	add.w	r3, r3, #4294967295
    194c:	81fb      	strh	r3, [r7, #14]
    194e:	f9b7 300e 	ldrsh.w	r3, [r7, #14]
    1952:	2b00      	cmp	r3, #0
    1954:	dcb5      	bgt.n	18c2 <get_midline+0x66>
                        p = p - 2;
                        for (; p >= 0; p --)
                            img[i * w + p] = 0;
                    }
            }
            for (p = line_mid + 1; p < w -1; p ++)
    1956:	897b      	ldrh	r3, [r7, #10]
    1958:	f103 0301 	add.w	r3, r3, #1
    195c:	b29b      	uxth	r3, r3
    195e:	81fb      	strh	r3, [r7, #14]
    1960:	e044      	b.n	19ec <get_midline+0x190>
            {
                if (img[i * w + p] == 0)
    1962:	f9b7 300c 	ldrsh.w	r3, [r7, #12]
    1966:	78ba      	ldrb	r2, [r7, #2]
    1968:	fb02 f203 	mul.w	r2, r2, r3
    196c:	f9b7 300e 	ldrsh.w	r3, [r7, #14]
    1970:	18d3      	adds	r3, r2, r3
    1972:	687a      	ldr	r2, [r7, #4]
    1974:	18d3      	adds	r3, r2, r3
    1976:	781b      	ldrb	r3, [r3, #0]
    1978:	2b00      	cmp	r3, #0
    197a:	d133      	bne.n	19e4 <get_midline+0x188>
                {
                    if ((img[i * w + p + 1] == 0)&&(p+1<w))
    197c:	f9b7 300c 	ldrsh.w	r3, [r7, #12]
    1980:	78ba      	ldrb	r2, [r7, #2]
    1982:	fb02 f203 	mul.w	r2, r2, r3
    1986:	f9b7 300e 	ldrsh.w	r3, [r7, #14]
    198a:	18d3      	adds	r3, r2, r3
    198c:	f103 0301 	add.w	r3, r3, #1
    1990:	687a      	ldr	r2, [r7, #4]
    1992:	18d3      	adds	r3, r2, r3
    1994:	781b      	ldrb	r3, [r3, #0]
    1996:	2b00      	cmp	r3, #0
    1998:	d124      	bne.n	19e4 <get_midline+0x188>
    199a:	f9b7 300e 	ldrsh.w	r3, [r7, #14]
    199e:	f103 0201 	add.w	r2, r3, #1
    19a2:	78bb      	ldrb	r3, [r7, #2]
    19a4:	429a      	cmp	r2, r3
    19a6:	da1d      	bge.n	19e4 <get_midline+0x188>
                    {
                        side_right = p;
    19a8:	89fb      	ldrh	r3, [r7, #14]
    19aa:	723b      	strb	r3, [r7, #8]
                        p = p + 2;
    19ac:	89fb      	ldrh	r3, [r7, #14]
    19ae:	f103 0302 	add.w	r3, r3, #2
    19b2:	b29b      	uxth	r3, r3
    19b4:	81fb      	strh	r3, [r7, #14]
                        for (; p < w; p ++)
    19b6:	e010      	b.n	19da <get_midline+0x17e>
                            img[i * w + p] = 0;
    19b8:	f9b7 300c 	ldrsh.w	r3, [r7, #12]
    19bc:	78ba      	ldrb	r2, [r7, #2]
    19be:	fb02 f203 	mul.w	r2, r2, r3
    19c2:	f9b7 300e 	ldrsh.w	r3, [r7, #14]
    19c6:	18d3      	adds	r3, r2, r3
    19c8:	687a      	ldr	r2, [r7, #4]
    19ca:	18d3      	adds	r3, r2, r3
    19cc:	f04f 0200 	mov.w	r2, #0
    19d0:	701a      	strb	r2, [r3, #0]
                {
                    if ((img[i * w + p + 1] == 0)&&(p+1<w))
                    {
                        side_right = p;
                        p = p + 2;
                        for (; p < w; p ++)
    19d2:	89fb      	ldrh	r3, [r7, #14]
    19d4:	f103 0301 	add.w	r3, r3, #1
    19d8:	81fb      	strh	r3, [r7, #14]
    19da:	f9b7 200e 	ldrsh.w	r2, [r7, #14]
    19de:	78bb      	ldrb	r3, [r7, #2]
    19e0:	429a      	cmp	r2, r3
    19e2:	dbe9      	blt.n	19b8 <get_midline+0x15c>
                        p = p - 2;
                        for (; p >= 0; p --)
                            img[i * w + p] = 0;
                    }
            }
            for (p = line_mid + 1; p < w -1; p ++)
    19e4:	89fb      	ldrh	r3, [r7, #14]
    19e6:	f103 0301 	add.w	r3, r3, #1
    19ea:	81fb      	strh	r3, [r7, #14]
    19ec:	f9b7 200e 	ldrsh.w	r2, [r7, #14]
    19f0:	78bb      	ldrb	r3, [r7, #2]
    19f2:	f103 33ff 	add.w	r3, r3, #4294967295
    19f6:	429a      	cmp	r2, r3
    19f8:	dbb3      	blt.n	1962 <get_midline+0x106>
                        for (; p < w; p ++)
                            img[i * w + p] = 0;
                    }
                }
            }
            line_mid = (side_left + side_right) / 2;
    19fa:	f997 2009 	ldrsb.w	r2, [r7, #9]
    19fe:	f997 3008 	ldrsb.w	r3, [r7, #8]
    1a02:	18d3      	adds	r3, r2, r3
    1a04:	ea4f 72d3 	mov.w	r2, r3, lsr #31
    1a08:	18d3      	adds	r3, r2, r3
    1a0a:	ea4f 0363 	mov.w	r3, r3, asr #1
    1a0e:	817b      	strh	r3, [r7, #10]
            img[i * w + line_mid] = 0;
    1a10:	f9b7 300c 	ldrsh.w	r3, [r7, #12]
    1a14:	78ba      	ldrb	r2, [r7, #2]
    1a16:	fb02 f203 	mul.w	r2, r2, r3
    1a1a:	f9b7 300a 	ldrsh.w	r3, [r7, #10]
    1a1e:	18d3      	adds	r3, r2, r3
    1a20:	687a      	ldr	r2, [r7, #4]
    1a22:	18d3      	adds	r3, r2, r3
    1a24:	f04f 0200 	mov.w	r2, #0
    1a28:	701a      	strb	r2, [r3, #0]
    int16 p = 0, i = 0, line_mid = 39;
    int8 side_left = 0, side_right = 79;

    if (img[(h-1)*w + line_mid] == 0xff)
    {
        for (i = h - 1; i >= 0; i --)
    1a2a:	89bb      	ldrh	r3, [r7, #12]
    1a2c:	f103 33ff 	add.w	r3, r3, #4294967295
    1a30:	81bb      	strh	r3, [r7, #12]
    1a32:	f9b7 300c 	ldrsh.w	r3, [r7, #12]
    1a36:	2b00      	cmp	r3, #0
    1a38:	f6bf af3d 	bge.w	18b6 <get_midline+0x5a>
            }
            line_mid = (side_left + side_right) / 2;
            img[i * w + line_mid] = 0;
        }
    }
}
    1a3c:	f107 0714 	add.w	r7, r7, #20
    1a40:	46bd      	mov	sp, r7
    1a42:	bc80      	pop	{r7}
    1a44:	4770      	bx	lr
    1a46:	bf00      	nop

00001a48 <LPLD_SCCB_Init>:
  ptb.GPIO_PinControl = NULL;
  LPLD_GPIO_Init(ptb);
}*/

void LPLD_SCCB_Init(void)
{
    1a48:	b580      	push	{r7, lr}
    1a4a:	b088      	sub	sp, #32
    1a4c:	af02      	add	r7, sp, #8
  GPIO_InitTypeDef ptb;
  /********û޸ֵ ʼ***********/
  ptb.GPIO_PTx = PTA;
    1a4e:	f44f 4370 	mov.w	r3, #61440	; 0xf000
    1a52:	f2c4 030f 	movt	r3, #16399	; 0x400f
    1a56:	607b      	str	r3, [r7, #4]
  ptb.GPIO_Pins = GPIO_Pin25 | GPIO_Pin26;
    1a58:	f04f 63c0 	mov.w	r3, #100663296	; 0x6000000
    1a5c:	60bb      	str	r3, [r7, #8]
  /********û޸ֵ ***********/
  ptb.GPIO_Dir = DIR_OUTPUT;
    1a5e:	f04f 0301 	mov.w	r3, #1
    1a62:	743b      	strb	r3, [r7, #16]
  ptb.GPIO_Output = OUTPUT_H;
    1a64:	f04f 0301 	mov.w	r3, #1
    1a68:	747b      	strb	r3, [r7, #17]
  ptb.GPIO_PinControl = INPUT_PULL_UP;
    1a6a:	f04f 0303 	mov.w	r3, #3
    1a6e:	60fb      	str	r3, [r7, #12]
  LPLD_GPIO_Init(ptb);
    1a70:	697b      	ldr	r3, [r7, #20]
    1a72:	9300      	str	r3, [sp, #0]
    1a74:	f107 0304 	add.w	r3, r7, #4
    1a78:	cb0f      	ldmia	r3, {r0, r1, r2, r3}
    1a7a:	f003 f909 	bl	4c90 <LPLD_GPIO_Init>
}
    1a7e:	f107 0718 	add.w	r7, r7, #24
    1a82:	46bd      	mov	sp, r7
    1a84:	bd80      	pop	{r7, pc}
    1a86:	bf00      	nop

00001a88 <LPLD_SCCB_WriteReg>:
 * :
 *    1-ɹ
 *    0-ʧ
 */
uint8 LPLD_SCCB_WriteReg(uint16 reg_addr , uint8 data)
{		
    1a88:	b580      	push	{r7, lr}
    1a8a:	b082      	sub	sp, #8
    1a8c:	af00      	add	r7, sp, #0
    1a8e:	4602      	mov	r2, r0
    1a90:	460b      	mov	r3, r1
    1a92:	80fa      	strh	r2, [r7, #6]
    1a94:	717b      	strb	r3, [r7, #5]
  if(!LPLD_SCCB_Start())
    1a96:	f000 f889 	bl	1bac <LPLD_SCCB_Start>
    1a9a:	4603      	mov	r3, r0
    1a9c:	2b00      	cmp	r3, #0
    1a9e:	d102      	bne.n	1aa6 <LPLD_SCCB_WriteReg+0x1e>
  {
    return 0;
    1aa0:	f04f 0300 	mov.w	r3, #0
    1aa4:	e01e      	b.n	1ae4 <LPLD_SCCB_WriteReg+0x5c>
  }
  LPLD_SCCB_SendByte(SCCB_DEV_ADR ); 
    1aa6:	f04f 0042 	mov.w	r0, #66	; 0x42
    1aaa:	f000 f9bd 	bl	1e28 <LPLD_SCCB_SendByte>
  if(!LPLD_SCCB_WaitAck())
    1aae:	f000 f96d 	bl	1d8c <LPLD_SCCB_WaitAck>
    1ab2:	4603      	mov	r3, r0
    1ab4:	2b00      	cmp	r3, #0
    1ab6:	d104      	bne.n	1ac2 <LPLD_SCCB_WriteReg+0x3a>
  {
    LPLD_SCCB_Stop(); 
    1ab8:	f000 f8e0 	bl	1c7c <LPLD_SCCB_Stop>
    return 0;
    1abc:	f04f 0300 	mov.w	r3, #0
    1ac0:	e010      	b.n	1ae4 <LPLD_SCCB_WriteReg+0x5c>
  }
  LPLD_SCCB_SendByte((uint8)(reg_addr & 0x00FF));   
    1ac2:	88fb      	ldrh	r3, [r7, #6]
    1ac4:	b2db      	uxtb	r3, r3
    1ac6:	4618      	mov	r0, r3
    1ac8:	f000 f9ae 	bl	1e28 <LPLD_SCCB_SendByte>
  LPLD_SCCB_WaitAck();	
    1acc:	f000 f95e 	bl	1d8c <LPLD_SCCB_WaitAck>
  LPLD_SCCB_SendByte(data);
    1ad0:	797b      	ldrb	r3, [r7, #5]
    1ad2:	4618      	mov	r0, r3
    1ad4:	f000 f9a8 	bl	1e28 <LPLD_SCCB_SendByte>
  LPLD_SCCB_WaitAck();   
    1ad8:	f000 f958 	bl	1d8c <LPLD_SCCB_WaitAck>
  LPLD_SCCB_Stop(); 
    1adc:	f000 f8ce 	bl	1c7c <LPLD_SCCB_Stop>
  return 1;
    1ae0:	f04f 0301 	mov.w	r3, #1
}									 
    1ae4:	4618      	mov	r0, r3
    1ae6:	f107 0708 	add.w	r7, r7, #8
    1aea:	46bd      	mov	sp, r7
    1aec:	bd80      	pop	{r7, pc}
    1aee:	bf00      	nop

00001af0 <LPLD_SCCB_ReadReg>:
 * :
 *    1-ɹ
 *    0-ʧ
 */          
uint8 LPLD_SCCB_ReadReg(uint8 reg_addr, uint8* data, uint16 length)
{	
    1af0:	b580      	push	{r7, lr}
    1af2:	b082      	sub	sp, #8
    1af4:	af00      	add	r7, sp, #0
    1af6:	6039      	str	r1, [r7, #0]
    1af8:	4613      	mov	r3, r2
    1afa:	4602      	mov	r2, r0
    1afc:	71fa      	strb	r2, [r7, #7]
    1afe:	80bb      	strh	r3, [r7, #4]
  if(!LPLD_SCCB_Start())
    1b00:	f000 f854 	bl	1bac <LPLD_SCCB_Start>
    1b04:	4603      	mov	r3, r0
    1b06:	2b00      	cmp	r3, #0
    1b08:	d102      	bne.n	1b10 <LPLD_SCCB_ReadReg+0x20>
  {
    return 0;
    1b0a:	f04f 0300 	mov.w	r3, #0
    1b0e:	e048      	b.n	1ba2 <LPLD_SCCB_ReadReg+0xb2>
  }
  LPLD_SCCB_SendByte( SCCB_DEV_ADR ); 
    1b10:	f04f 0042 	mov.w	r0, #66	; 0x42
    1b14:	f000 f988 	bl	1e28 <LPLD_SCCB_SendByte>
  if( !LPLD_SCCB_WaitAck() )
    1b18:	f000 f938 	bl	1d8c <LPLD_SCCB_WaitAck>
    1b1c:	4603      	mov	r3, r0
    1b1e:	2b00      	cmp	r3, #0
    1b20:	d104      	bne.n	1b2c <LPLD_SCCB_ReadReg+0x3c>
  {
    LPLD_SCCB_Stop(); 
    1b22:	f000 f8ab 	bl	1c7c <LPLD_SCCB_Stop>
    return 0;
    1b26:	f04f 0300 	mov.w	r3, #0
    1b2a:	e03a      	b.n	1ba2 <LPLD_SCCB_ReadReg+0xb2>
  }
  LPLD_SCCB_SendByte( reg_addr ); 
    1b2c:	79fb      	ldrb	r3, [r7, #7]
    1b2e:	4618      	mov	r0, r3
    1b30:	f000 f97a 	bl	1e28 <LPLD_SCCB_SendByte>
  LPLD_SCCB_WaitAck();	
    1b34:	f000 f92a 	bl	1d8c <LPLD_SCCB_WaitAck>
  LPLD_SCCB_Stop(); 
    1b38:	f000 f8a0 	bl	1c7c <LPLD_SCCB_Stop>
  
  if(!LPLD_SCCB_Start())
    1b3c:	f000 f836 	bl	1bac <LPLD_SCCB_Start>
    1b40:	4603      	mov	r3, r0
    1b42:	2b00      	cmp	r3, #0
    1b44:	d102      	bne.n	1b4c <LPLD_SCCB_ReadReg+0x5c>
  {
    return 0;
    1b46:	f04f 0300 	mov.w	r3, #0
    1b4a:	e02a      	b.n	1ba2 <LPLD_SCCB_ReadReg+0xb2>
  }
  LPLD_SCCB_SendByte( SCCB_DEV_ADR + 1 );
    1b4c:	f04f 0043 	mov.w	r0, #67	; 0x43
    1b50:	f000 f96a 	bl	1e28 <LPLD_SCCB_SendByte>
  
  if(!LPLD_SCCB_WaitAck())
    1b54:	f000 f91a 	bl	1d8c <LPLD_SCCB_WaitAck>
    1b58:	4603      	mov	r3, r0
    1b5a:	2b00      	cmp	r3, #0
    1b5c:	d11a      	bne.n	1b94 <LPLD_SCCB_ReadReg+0xa4>
  {
    LPLD_SCCB_Stop(); 
    1b5e:	f000 f88d 	bl	1c7c <LPLD_SCCB_Stop>
    return 0;
    1b62:	f04f 0300 	mov.w	r3, #0
    1b66:	e01c      	b.n	1ba2 <LPLD_SCCB_ReadReg+0xb2>
  }
  while(length)
  {
    *data = LPLD_SCCB_ReceiveByte();
    1b68:	f000 f9b0 	bl	1ecc <LPLD_SCCB_ReceiveByte>
    1b6c:	4603      	mov	r3, r0
    1b6e:	461a      	mov	r2, r3
    1b70:	683b      	ldr	r3, [r7, #0]
    1b72:	701a      	strb	r2, [r3, #0]
    if(length == 1)
    1b74:	88bb      	ldrh	r3, [r7, #4]
    1b76:	2b01      	cmp	r3, #1
    1b78:	d102      	bne.n	1b80 <LPLD_SCCB_ReadReg+0x90>
    {
      LPLD_SCCB_NoAck();
    1b7a:	f000 f8d7 	bl	1d2c <LPLD_SCCB_NoAck>
    1b7e:	e001      	b.n	1b84 <LPLD_SCCB_ReadReg+0x94>
    }
    else
    {
      LPLD_SCCB_Ack(); 
    1b80:	f000 f8a4 	bl	1ccc <LPLD_SCCB_Ack>
    }
    data++;
    1b84:	683b      	ldr	r3, [r7, #0]
    1b86:	f103 0301 	add.w	r3, r3, #1
    1b8a:	603b      	str	r3, [r7, #0]
    length--;
    1b8c:	88bb      	ldrh	r3, [r7, #4]
    1b8e:	f103 33ff 	add.w	r3, r3, #4294967295
    1b92:	80bb      	strh	r3, [r7, #4]
  if(!LPLD_SCCB_WaitAck())
  {
    LPLD_SCCB_Stop(); 
    return 0;
  }
  while(length)
    1b94:	88bb      	ldrh	r3, [r7, #4]
    1b96:	2b00      	cmp	r3, #0
    1b98:	d1e6      	bne.n	1b68 <LPLD_SCCB_ReadReg+0x78>
      LPLD_SCCB_Ack(); 
    }
    data++;
    length--;
  }
  LPLD_SCCB_Stop();
    1b9a:	f000 f86f 	bl	1c7c <LPLD_SCCB_Stop>
  return 1;
    1b9e:	f04f 0301 	mov.w	r3, #1
}
    1ba2:	4618      	mov	r0, r3
    1ba4:	f107 0708 	add.w	r7, r7, #8
    1ba8:	46bd      	mov	sp, r7
    1baa:	bd80      	pop	{r7, pc}

00001bac <LPLD_SCCB_Start>:
/*
 * LPLD_SCCB_Start
 * SCCBʼźţڲ
 */
uint8 LPLD_SCCB_Start(void)
{
    1bac:	b580      	push	{r7, lr}
    1bae:	af00      	add	r7, sp, #0
  SCCB_SDA_O=1;//ߵƽ
    1bb0:	f04f 0364 	mov.w	r3, #100	; 0x64
    1bb4:	f2c4 33fe 	movt	r3, #17406	; 0x43fe
    1bb8:	f04f 0201 	mov.w	r2, #1
    1bbc:	601a      	str	r2, [r3, #0]
  SCCB_SCL=1;   //ʱߵƽ 
    1bbe:	f04f 0368 	mov.w	r3, #104	; 0x68
    1bc2:	f2c4 33fe 	movt	r3, #17406	; 0x43fe
    1bc6:	f04f 0201 	mov.w	r2, #1
    1bca:	601a      	str	r2, [r3, #0]
  SCCB_DELAY();
    1bcc:	f44f 70fa 	mov.w	r0, #500	; 0x1f4
    1bd0:	f000 f9de 	bl	1f90 <LPLD_SCCB_Delay>
  
  SCCB_SDA_IN();//Ϊ
    1bd4:	f44f 7339 	mov.w	r3, #740	; 0x2e4
    1bd8:	f2c4 33fe 	movt	r3, #17406	; 0x43fe
    1bdc:	f04f 0200 	mov.w	r2, #0
    1be0:	601a      	str	r2, [r3, #0]
  if(!SCCB_SDA_I)
    1be2:	f44f 7319 	mov.w	r3, #612	; 0x264
    1be6:	f2c4 33fe 	movt	r3, #17406	; 0x43fe
    1bea:	681b      	ldr	r3, [r3, #0]
    1bec:	2b00      	cmp	r3, #0
    1bee:	d109      	bne.n	1c04 <LPLD_SCCB_Start+0x58>
  {
    SCCB_SDA_OUT();	
    1bf0:	f44f 7339 	mov.w	r3, #740	; 0x2e4
    1bf4:	f2c4 33fe 	movt	r3, #17406	; 0x43fe
    1bf8:	f04f 0201 	mov.w	r2, #1
    1bfc:	601a      	str	r2, [r3, #0]
    return 0;
    1bfe:	f04f 0300 	mov.w	r3, #0
    1c02:	e039      	b.n	1c78 <LPLD_SCCB_Start+0xcc>
  }
  SCCB_SDA_OUT();//Ϊ;	
    1c04:	f44f 7339 	mov.w	r3, #740	; 0x2e4
    1c08:	f2c4 33fe 	movt	r3, #17406	; 0x43fe
    1c0c:	f04f 0201 	mov.w	r2, #1
    1c10:	601a      	str	r2, [r3, #0]
  SCCB_SDA_O=0; //͵ƽ
    1c12:	f04f 0364 	mov.w	r3, #100	; 0x64
    1c16:	f2c4 33fe 	movt	r3, #17406	; 0x43fe
    1c1a:	f04f 0200 	mov.w	r2, #0
    1c1e:	601a      	str	r2, [r3, #0]
  
  SCCB_DELAY();
    1c20:	f44f 70fa 	mov.w	r0, #500	; 0x1f4
    1c24:	f000 f9b4 	bl	1f90 <LPLD_SCCB_Delay>
  
  SCCB_SDA_IN();//Ϊ
    1c28:	f44f 7339 	mov.w	r3, #740	; 0x2e4
    1c2c:	f2c4 33fe 	movt	r3, #17406	; 0x43fe
    1c30:	f04f 0200 	mov.w	r2, #0
    1c34:	601a      	str	r2, [r3, #0]
  if(SCCB_SDA_I) 
    1c36:	f44f 7319 	mov.w	r3, #612	; 0x264
    1c3a:	f2c4 33fe 	movt	r3, #17406	; 0x43fe
    1c3e:	681b      	ldr	r3, [r3, #0]
    1c40:	2b00      	cmp	r3, #0
    1c42:	d009      	beq.n	1c58 <LPLD_SCCB_Start+0xac>
  {
    SCCB_SDA_OUT();
    1c44:	f44f 7339 	mov.w	r3, #740	; 0x2e4
    1c48:	f2c4 33fe 	movt	r3, #17406	; 0x43fe
    1c4c:	f04f 0201 	mov.w	r2, #1
    1c50:	601a      	str	r2, [r3, #0]
    return 0;
    1c52:	f04f 0300 	mov.w	r3, #0
    1c56:	e00f      	b.n	1c78 <LPLD_SCCB_Start+0xcc>
  }
  SCCB_SDA_OUT();//Ϊ
    1c58:	f44f 7339 	mov.w	r3, #740	; 0x2e4
    1c5c:	f2c4 33fe 	movt	r3, #17406	; 0x43fe
    1c60:	f04f 0201 	mov.w	r2, #1
    1c64:	601a      	str	r2, [r3, #0]
  SCCB_SDA_O=0;//͵ƽ
    1c66:	f04f 0364 	mov.w	r3, #100	; 0x64
    1c6a:	f2c4 33fe 	movt	r3, #17406	; 0x43fe
    1c6e:	f04f 0200 	mov.w	r2, #0
    1c72:	601a      	str	r2, [r3, #0]
  return 1;
    1c74:	f04f 0301 	mov.w	r3, #1
}
    1c78:	4618      	mov	r0, r3
    1c7a:	bd80      	pop	{r7, pc}

00001c7c <LPLD_SCCB_Stop>:
/*
 * LPLD_SCCB_Stop
 * SCCBֹͣźţڲ
 */
static void LPLD_SCCB_Stop(void)
{
    1c7c:	b580      	push	{r7, lr}
    1c7e:	af00      	add	r7, sp, #0
  SCCB_SCL=0;
    1c80:	f04f 0368 	mov.w	r3, #104	; 0x68
    1c84:	f2c4 33fe 	movt	r3, #17406	; 0x43fe
    1c88:	f04f 0200 	mov.w	r2, #0
    1c8c:	601a      	str	r2, [r3, #0]
  SCCB_SDA_O=0;
    1c8e:	f04f 0364 	mov.w	r3, #100	; 0x64
    1c92:	f2c4 33fe 	movt	r3, #17406	; 0x43fe
    1c96:	f04f 0200 	mov.w	r2, #0
    1c9a:	601a      	str	r2, [r3, #0]
  SCCB_DELAY();
    1c9c:	f44f 70fa 	mov.w	r0, #500	; 0x1f4
    1ca0:	f000 f976 	bl	1f90 <LPLD_SCCB_Delay>
  
  SCCB_SCL=1;
    1ca4:	f04f 0368 	mov.w	r3, #104	; 0x68
    1ca8:	f2c4 33fe 	movt	r3, #17406	; 0x43fe
    1cac:	f04f 0201 	mov.w	r2, #1
    1cb0:	601a      	str	r2, [r3, #0]
  SCCB_SDA_O=1;
    1cb2:	f04f 0364 	mov.w	r3, #100	; 0x64
    1cb6:	f2c4 33fe 	movt	r3, #17406	; 0x43fe
    1cba:	f04f 0201 	mov.w	r2, #1
    1cbe:	601a      	str	r2, [r3, #0]
  SCCB_DELAY();
    1cc0:	f44f 70fa 	mov.w	r0, #500	; 0x1f4
    1cc4:	f000 f964 	bl	1f90 <LPLD_SCCB_Delay>
}
    1cc8:	bd80      	pop	{r7, pc}
    1cca:	bf00      	nop

00001ccc <LPLD_SCCB_Ack>:
/*
 * LPLD_SCCB_Stop
 * SCCBӦźţڲ
 */
static void LPLD_SCCB_Ack(void)
{	
    1ccc:	b580      	push	{r7, lr}
    1cce:	af00      	add	r7, sp, #0
  SCCB_SCL=0;
    1cd0:	f04f 0368 	mov.w	r3, #104	; 0x68
    1cd4:	f2c4 33fe 	movt	r3, #17406	; 0x43fe
    1cd8:	f04f 0200 	mov.w	r2, #0
    1cdc:	601a      	str	r2, [r3, #0]
  SCCB_DELAY();
    1cde:	f44f 70fa 	mov.w	r0, #500	; 0x1f4
    1ce2:	f000 f955 	bl	1f90 <LPLD_SCCB_Delay>
  
  SCCB_SDA_O=0;
    1ce6:	f04f 0364 	mov.w	r3, #100	; 0x64
    1cea:	f2c4 33fe 	movt	r3, #17406	; 0x43fe
    1cee:	f04f 0200 	mov.w	r2, #0
    1cf2:	601a      	str	r2, [r3, #0]
  SCCB_DELAY();
    1cf4:	f44f 70fa 	mov.w	r0, #500	; 0x1f4
    1cf8:	f000 f94a 	bl	1f90 <LPLD_SCCB_Delay>
  
  SCCB_SCL=1;
    1cfc:	f04f 0368 	mov.w	r3, #104	; 0x68
    1d00:	f2c4 33fe 	movt	r3, #17406	; 0x43fe
    1d04:	f04f 0201 	mov.w	r2, #1
    1d08:	601a      	str	r2, [r3, #0]
  SCCB_DELAY();
    1d0a:	f44f 70fa 	mov.w	r0, #500	; 0x1f4
    1d0e:	f000 f93f 	bl	1f90 <LPLD_SCCB_Delay>
  
  SCCB_SCL=0;
    1d12:	f04f 0368 	mov.w	r3, #104	; 0x68
    1d16:	f2c4 33fe 	movt	r3, #17406	; 0x43fe
    1d1a:	f04f 0200 	mov.w	r2, #0
    1d1e:	601a      	str	r2, [r3, #0]
  SCCB_DELAY();
    1d20:	f44f 70fa 	mov.w	r0, #500	; 0x1f4
    1d24:	f000 f934 	bl	1f90 <LPLD_SCCB_Delay>
}
    1d28:	bd80      	pop	{r7, pc}
    1d2a:	bf00      	nop

00001d2c <LPLD_SCCB_NoAck>:
/*
 * LPLD_SCCB_NoAck
 * SCCBӦźţڲ
 */
static void LPLD_SCCB_NoAck(void)
{	
    1d2c:	b580      	push	{r7, lr}
    1d2e:	af00      	add	r7, sp, #0
  SCCB_SCL=0;
    1d30:	f04f 0368 	mov.w	r3, #104	; 0x68
    1d34:	f2c4 33fe 	movt	r3, #17406	; 0x43fe
    1d38:	f04f 0200 	mov.w	r2, #0
    1d3c:	601a      	str	r2, [r3, #0]
  SCCB_DELAY();
    1d3e:	f44f 70fa 	mov.w	r0, #500	; 0x1f4
    1d42:	f000 f925 	bl	1f90 <LPLD_SCCB_Delay>
  SCCB_SDA_O=1;
    1d46:	f04f 0364 	mov.w	r3, #100	; 0x64
    1d4a:	f2c4 33fe 	movt	r3, #17406	; 0x43fe
    1d4e:	f04f 0201 	mov.w	r2, #1
    1d52:	601a      	str	r2, [r3, #0]
  SCCB_DELAY();
    1d54:	f44f 70fa 	mov.w	r0, #500	; 0x1f4
    1d58:	f000 f91a 	bl	1f90 <LPLD_SCCB_Delay>
  SCCB_SCL=1;
    1d5c:	f04f 0368 	mov.w	r3, #104	; 0x68
    1d60:	f2c4 33fe 	movt	r3, #17406	; 0x43fe
    1d64:	f04f 0201 	mov.w	r2, #1
    1d68:	601a      	str	r2, [r3, #0]
  SCCB_DELAY();
    1d6a:	f44f 70fa 	mov.w	r0, #500	; 0x1f4
    1d6e:	f000 f90f 	bl	1f90 <LPLD_SCCB_Delay>
  SCCB_SCL=0;
    1d72:	f04f 0368 	mov.w	r3, #104	; 0x68
    1d76:	f2c4 33fe 	movt	r3, #17406	; 0x43fe
    1d7a:	f04f 0200 	mov.w	r2, #0
    1d7e:	601a      	str	r2, [r3, #0]
  SCCB_DELAY();
    1d80:	f44f 70fa 	mov.w	r0, #500	; 0x1f4
    1d84:	f000 f904 	bl	1f90 <LPLD_SCCB_Delay>
}
    1d88:	bd80      	pop	{r7, pc}
    1d8a:	bf00      	nop

00001d8c <LPLD_SCCB_WaitAck>:
/*
 * LPLD_SCCB_WaitAck
 * SCCBȴӦźţڲ
 */
static uint8 LPLD_SCCB_WaitAck(void) 	
{
    1d8c:	b580      	push	{r7, lr}
    1d8e:	af00      	add	r7, sp, #0
  SCCB_SCL=0;//ʱߵ͵ƽ
    1d90:	f04f 0368 	mov.w	r3, #104	; 0x68
    1d94:	f2c4 33fe 	movt	r3, #17406	; 0x43fe
    1d98:	f04f 0200 	mov.w	r2, #0
    1d9c:	601a      	str	r2, [r3, #0]
  SCCB_DELAY(); 
    1d9e:	f44f 70fa 	mov.w	r0, #500	; 0x1f4
    1da2:	f000 f8f5 	bl	1f90 <LPLD_SCCB_Delay>
  
 SCCB_SDA_IN();//Ϊ**
    1da6:	f44f 7339 	mov.w	r3, #740	; 0x2e4
    1daa:	f2c4 33fe 	movt	r3, #17406	; 0x43fe
    1dae:	f04f 0200 	mov.w	r2, #0
    1db2:	601a      	str	r2, [r3, #0]
  SCCB_DELAY();
    1db4:	f44f 70fa 	mov.w	r0, #500	; 0x1f4
    1db8:	f000 f8ea 	bl	1f90 <LPLD_SCCB_Delay>
  
  SCCB_SCL=1;//ʱ߸ߵƽ
    1dbc:	f04f 0368 	mov.w	r3, #104	; 0x68
    1dc0:	f2c4 33fe 	movt	r3, #17406	; 0x43fe
    1dc4:	f04f 0201 	mov.w	r2, #1
    1dc8:	601a      	str	r2, [r3, #0]
  
  SCCB_DELAY();
    1dca:	f44f 70fa 	mov.w	r0, #500	; 0x1f4
    1dce:	f000 f8df 	bl	1f90 <LPLD_SCCB_Delay>
  
  if(SCCB_SDA_I)
    1dd2:	f44f 7319 	mov.w	r3, #612	; 0x264
    1dd6:	f2c4 33fe 	movt	r3, #17406	; 0x43fe
    1dda:	681b      	ldr	r3, [r3, #0]
    1ddc:	2b00      	cmp	r3, #0
    1dde:	d010      	beq.n	1e02 <LPLD_SCCB_WaitAck+0x76>
  {
    SCCB_SDA_OUT();
    1de0:	f44f 7339 	mov.w	r3, #740	; 0x2e4
    1de4:	f2c4 33fe 	movt	r3, #17406	; 0x43fe
    1de8:	f04f 0201 	mov.w	r2, #1
    1dec:	601a      	str	r2, [r3, #0]
    SCCB_SCL=0;
    1dee:	f04f 0368 	mov.w	r3, #104	; 0x68
    1df2:	f2c4 33fe 	movt	r3, #17406	; 0x43fe
    1df6:	f04f 0200 	mov.w	r2, #0
    1dfa:	601a      	str	r2, [r3, #0]
    return 0;
    1dfc:	f04f 0300 	mov.w	r3, #0
    1e00:	e00f      	b.n	1e22 <LPLD_SCCB_WaitAck+0x96>
  }
  SCCB_SDA_OUT();//Ϊ
    1e02:	f44f 7339 	mov.w	r3, #740	; 0x2e4
    1e06:	f2c4 33fe 	movt	r3, #17406	; 0x43fe
    1e0a:	f04f 0201 	mov.w	r2, #1
    1e0e:	601a      	str	r2, [r3, #0]
  SCCB_SCL=0; //ʱߵ͵ƽ
    1e10:	f04f 0368 	mov.w	r3, #104	; 0x68
    1e14:	f2c4 33fe 	movt	r3, #17406	; 0x43fe
    1e18:	f04f 0200 	mov.w	r2, #0
    1e1c:	601a      	str	r2, [r3, #0]
  return 1;
    1e1e:	f04f 0301 	mov.w	r3, #1
}
    1e22:	4618      	mov	r0, r3
    1e24:	bd80      	pop	{r7, pc}
    1e26:	bf00      	nop

00001e28 <LPLD_SCCB_SendByte>:
/*
 * LPLD_SCCB_SendByte
 * SCCBݣڲ
 */
static void LPLD_SCCB_SendByte(uint8 data) 
{
    1e28:	b580      	push	{r7, lr}
    1e2a:	b084      	sub	sp, #16
    1e2c:	af00      	add	r7, sp, #0
    1e2e:	4603      	mov	r3, r0
    1e30:	71fb      	strb	r3, [r7, #7]
  uint8 i=8;
    1e32:	f04f 0308 	mov.w	r3, #8
    1e36:	73fb      	strb	r3, [r7, #15]
  while(i--)
    1e38:	e030      	b.n	1e9c <LPLD_SCCB_SendByte+0x74>
  {
    SCCB_SCL=0;
    1e3a:	f04f 0368 	mov.w	r3, #104	; 0x68
    1e3e:	f2c4 33fe 	movt	r3, #17406	; 0x43fe
    1e42:	f04f 0200 	mov.w	r2, #0
    1e46:	601a      	str	r2, [r3, #0]
    SCCB_DELAY();
    1e48:	f44f 70fa 	mov.w	r0, #500	; 0x1f4
    1e4c:	f000 f8a0 	bl	1f90 <LPLD_SCCB_Delay>
    if(data&0x80)
    1e50:	79fb      	ldrb	r3, [r7, #7]
    1e52:	b25b      	sxtb	r3, r3
    1e54:	2b00      	cmp	r3, #0
    1e56:	da07      	bge.n	1e68 <LPLD_SCCB_SendByte+0x40>
    {
      SCCB_SDA_O=1; 
    1e58:	f04f 0364 	mov.w	r3, #100	; 0x64
    1e5c:	f2c4 33fe 	movt	r3, #17406	; 0x43fe
    1e60:	f04f 0201 	mov.w	r2, #1
    1e64:	601a      	str	r2, [r3, #0]
    1e66:	e006      	b.n	1e76 <LPLD_SCCB_SendByte+0x4e>
    }
    else 
    {
      SCCB_SDA_O=0;   
    1e68:	f04f 0364 	mov.w	r3, #100	; 0x64
    1e6c:	f2c4 33fe 	movt	r3, #17406	; 0x43fe
    1e70:	f04f 0200 	mov.w	r2, #0
    1e74:	601a      	str	r2, [r3, #0]
    }
    data<<=1;
    1e76:	79fb      	ldrb	r3, [r7, #7]
    1e78:	ea4f 0343 	mov.w	r3, r3, lsl #1
    1e7c:	71fb      	strb	r3, [r7, #7]
    SCCB_DELAY();
    1e7e:	f44f 70fa 	mov.w	r0, #500	; 0x1f4
    1e82:	f000 f885 	bl	1f90 <LPLD_SCCB_Delay>
    SCCB_SCL=1;
    1e86:	f04f 0368 	mov.w	r3, #104	; 0x68
    1e8a:	f2c4 33fe 	movt	r3, #17406	; 0x43fe
    1e8e:	f04f 0201 	mov.w	r2, #1
    1e92:	601a      	str	r2, [r3, #0]
    SCCB_DELAY();
    1e94:	f44f 70fa 	mov.w	r0, #500	; 0x1f4
    1e98:	f000 f87a 	bl	1f90 <LPLD_SCCB_Delay>
 * SCCBݣڲ
 */
static void LPLD_SCCB_SendByte(uint8 data) 
{
  uint8 i=8;
  while(i--)
    1e9c:	7bfb      	ldrb	r3, [r7, #15]
    1e9e:	2b00      	cmp	r3, #0
    1ea0:	bf0c      	ite	eq
    1ea2:	2300      	moveq	r3, #0
    1ea4:	2301      	movne	r3, #1
    1ea6:	b2db      	uxtb	r3, r3
    1ea8:	7bfa      	ldrb	r2, [r7, #15]
    1eaa:	f102 32ff 	add.w	r2, r2, #4294967295
    1eae:	73fa      	strb	r2, [r7, #15]
    1eb0:	2b00      	cmp	r3, #0
    1eb2:	d1c2      	bne.n	1e3a <LPLD_SCCB_SendByte+0x12>
    data<<=1;
    SCCB_DELAY();
    SCCB_SCL=1;
    SCCB_DELAY();
  }
  SCCB_SCL=0;
    1eb4:	f04f 0368 	mov.w	r3, #104	; 0x68
    1eb8:	f2c4 33fe 	movt	r3, #17406	; 0x43fe
    1ebc:	f04f 0200 	mov.w	r2, #0
    1ec0:	601a      	str	r2, [r3, #0]
}
    1ec2:	f107 0710 	add.w	r7, r7, #16
    1ec6:	46bd      	mov	sp, r7
    1ec8:	bd80      	pop	{r7, pc}
    1eca:	bf00      	nop

00001ecc <LPLD_SCCB_ReceiveByte>:
/*
 * LPLD_SCCB_SendByte
 * SCCBݣڲ
 */
static uint8 LPLD_SCCB_ReceiveByte(void)  
{ 
    1ecc:	b580      	push	{r7, lr}
    1ece:	b082      	sub	sp, #8
    1ed0:	af00      	add	r7, sp, #0
  uint8 i=8;
    1ed2:	f04f 0308 	mov.w	r3, #8
    1ed6:	71fb      	strb	r3, [r7, #7]
  uint8 ReceiveByte=0;
    1ed8:	f04f 0300 	mov.w	r3, #0
    1edc:	71bb      	strb	r3, [r7, #6]
  
  SCCB_SDA_O=1;	
    1ede:	f04f 0364 	mov.w	r3, #100	; 0x64
    1ee2:	f2c4 33fe 	movt	r3, #17406	; 0x43fe
    1ee6:	f04f 0201 	mov.w	r2, #1
    1eea:	601a      	str	r2, [r3, #0]
  SCCB_DELAY();
    1eec:	f44f 70fa 	mov.w	r0, #500	; 0x1f4
    1ef0:	f000 f84e 	bl	1f90 <LPLD_SCCB_Delay>
  
  SCCB_SDA_IN();	
    1ef4:	f44f 7339 	mov.w	r3, #740	; 0x2e4
    1ef8:	f2c4 33fe 	movt	r3, #17406	; 0x43fe
    1efc:	f04f 0200 	mov.w	r2, #0
    1f00:	601a      	str	r2, [r3, #0]
  
  while(i--)
    1f02:	e024      	b.n	1f4e <LPLD_SCCB_ReceiveByte+0x82>
  {
    ReceiveByte<<=1;      
    1f04:	79bb      	ldrb	r3, [r7, #6]
    1f06:	ea4f 0343 	mov.w	r3, r3, lsl #1
    1f0a:	71bb      	strb	r3, [r7, #6]
    SCCB_SCL=0;
    1f0c:	f04f 0368 	mov.w	r3, #104	; 0x68
    1f10:	f2c4 33fe 	movt	r3, #17406	; 0x43fe
    1f14:	f04f 0200 	mov.w	r2, #0
    1f18:	601a      	str	r2, [r3, #0]
    SCCB_DELAY();
    1f1a:	f44f 70fa 	mov.w	r0, #500	; 0x1f4
    1f1e:	f000 f837 	bl	1f90 <LPLD_SCCB_Delay>
    
    SCCB_SCL=1;
    1f22:	f04f 0368 	mov.w	r3, #104	; 0x68
    1f26:	f2c4 33fe 	movt	r3, #17406	; 0x43fe
    1f2a:	f04f 0201 	mov.w	r2, #1
    1f2e:	601a      	str	r2, [r3, #0]
    SCCB_DELAY();	
    1f30:	f44f 70fa 	mov.w	r0, #500	; 0x1f4
    1f34:	f000 f82c 	bl	1f90 <LPLD_SCCB_Delay>
    
    if(SCCB_SDA_I)
    1f38:	f44f 7319 	mov.w	r3, #612	; 0x264
    1f3c:	f2c4 33fe 	movt	r3, #17406	; 0x43fe
    1f40:	681b      	ldr	r3, [r3, #0]
    1f42:	2b00      	cmp	r3, #0
    1f44:	d003      	beq.n	1f4e <LPLD_SCCB_ReceiveByte+0x82>
    {
      ReceiveByte|=0x01;
    1f46:	79bb      	ldrb	r3, [r7, #6]
    1f48:	f043 0301 	orr.w	r3, r3, #1
    1f4c:	71bb      	strb	r3, [r7, #6]
  SCCB_SDA_O=1;	
  SCCB_DELAY();
  
  SCCB_SDA_IN();	
  
  while(i--)
    1f4e:	79fb      	ldrb	r3, [r7, #7]
    1f50:	2b00      	cmp	r3, #0
    1f52:	bf0c      	ite	eq
    1f54:	2300      	moveq	r3, #0
    1f56:	2301      	movne	r3, #1
    1f58:	b2db      	uxtb	r3, r3
    1f5a:	79fa      	ldrb	r2, [r7, #7]
    1f5c:	f102 32ff 	add.w	r2, r2, #4294967295
    1f60:	71fa      	strb	r2, [r7, #7]
    1f62:	2b00      	cmp	r3, #0
    1f64:	d1ce      	bne.n	1f04 <LPLD_SCCB_ReceiveByte+0x38>
    {
      ReceiveByte|=0x01;
    }
    
  }
  SCCB_SDA_OUT();
    1f66:	f44f 7339 	mov.w	r3, #740	; 0x2e4
    1f6a:	f2c4 33fe 	movt	r3, #17406	; 0x43fe
    1f6e:	f04f 0201 	mov.w	r2, #1
    1f72:	601a      	str	r2, [r3, #0]
  SCCB_SCL=0;
    1f74:	f04f 0368 	mov.w	r3, #104	; 0x68
    1f78:	f2c4 33fe 	movt	r3, #17406	; 0x43fe
    1f7c:	f04f 0200 	mov.w	r2, #0
    1f80:	601a      	str	r2, [r3, #0]
  
  return ReceiveByte;
    1f82:	79bb      	ldrb	r3, [r7, #6]
}
    1f84:	4618      	mov	r0, r3
    1f86:	f107 0708 	add.w	r7, r7, #8
    1f8a:	46bd      	mov	sp, r7
    1f8c:	bd80      	pop	{r7, pc}
    1f8e:	bf00      	nop

00001f90 <LPLD_SCCB_Delay>:
/*
 * LPLD_SCCB_SendByte
 * SCCBʱڲ
 */
static void LPLD_SCCB_Delay(uint16 i)
{	
    1f90:	b480      	push	{r7}
    1f92:	b083      	sub	sp, #12
    1f94:	af00      	add	r7, sp, #0
    1f96:	4603      	mov	r3, r0
    1f98:	80fb      	strh	r3, [r7, #6]
  while(i) 
    1f9a:	e003      	b.n	1fa4 <LPLD_SCCB_Delay+0x14>
    i--; 
    1f9c:	88fb      	ldrh	r3, [r7, #6]
    1f9e:	f103 33ff 	add.w	r3, r3, #4294967295
    1fa2:	80fb      	strh	r3, [r7, #6]
 * LPLD_SCCB_SendByte
 * SCCBʱڲ
 */
static void LPLD_SCCB_Delay(uint16 i)
{	
  while(i) 
    1fa4:	88fb      	ldrh	r3, [r7, #6]
    1fa6:	2b00      	cmp	r3, #0
    1fa8:	d1f8      	bne.n	1f9c <LPLD_SCCB_Delay+0xc>
    i--; 
}
    1faa:	f107 070c 	add.w	r7, r7, #12
    1fae:	46bd      	mov	sp, r7
    1fb0:	bc80      	pop	{r7}
    1fb2:	4770      	bx	lr

00001fb4 <LPLD_ADC_Init>:
 * 输出:
 *    0--配置错误
 *    1--配置成功
 */
uint8 LPLD_ADC_Init(ADC_InitTypeDef adc_init_structure)
{
    1fb4:	b084      	sub	sp, #16
    1fb6:	b580      	push	{r7, lr}
    1fb8:	b086      	sub	sp, #24
    1fba:	af00      	add	r7, sp, #0
    1fbc:	f107 0c20 	add.w	ip, r7, #32
    1fc0:	e88c 000f 	stmia.w	ip, {r0, r1, r2, r3}
  uint8 i;
  ADC_MemMapPtr adcx = adc_init_structure.ADC_Adcx;
    1fc4:	6a3b      	ldr	r3, [r7, #32]
    1fc6:	613b      	str	r3, [r7, #16]
  uint8 diff = adc_init_structure.ADC_DiffMode;
    1fc8:	f897 3024 	ldrb.w	r3, [r7, #36]	; 0x24
    1fcc:	73fb      	strb	r3, [r7, #15]
  uint8 mode = adc_init_structure.ADC_BitMode;
    1fce:	f897 3025 	ldrb.w	r3, [r7, #37]	; 0x25
    1fd2:	73bb      	strb	r3, [r7, #14]
  uint8 time = adc_init_structure.ADC_SampleTimeCfg;
    1fd4:	f897 3026 	ldrb.w	r3, [r7, #38]	; 0x26
    1fd8:	737b      	strb	r3, [r7, #13]
  uint8 ltime = adc_init_structure.ADC_LongSampleTimeSel;
    1fda:	f897 3027 	ldrb.w	r3, [r7, #39]	; 0x27
    1fde:	733b      	strb	r3, [r7, #12]
  uint8 avg = adc_init_structure.ADC_HwAvgSel;
    1fe0:	f897 3028 	ldrb.w	r3, [r7, #40]	; 0x28
    1fe4:	72fb      	strb	r3, [r7, #11]
  uint8 muxab = adc_init_structure.ADC_MuxSel;
    1fe6:	f897 302a 	ldrb.w	r3, [r7, #42]	; 0x2a
    1fea:	72bb      	strb	r3, [r7, #10]
  uint8 pga = adc_init_structure.ADC_PgaGain;
    1fec:	f897 3029 	ldrb.w	r3, [r7, #41]	; 0x29
    1ff0:	727b      	strb	r3, [r7, #9]
  uint8 hwtrg = adc_init_structure.ADC_HwTrgCfg;
    1ff2:	f897 302c 	ldrb.w	r3, [r7, #44]	; 0x2c
    1ff6:	723b      	strb	r3, [r7, #8]
  ADC_ISR_CALLBACK isr_func = adc_init_structure.ADC_Isr;
    1ff8:	6b3b      	ldr	r3, [r7, #48]	; 0x30
    1ffa:	607b      	str	r3, [r7, #4]
 
  //配置ADC时钟 //这里貌似只配置了两个还要另行配置其他的几个
  if(adcx == ADC0)
    1ffc:	693a      	ldr	r2, [r7, #16]
    1ffe:	f44f 4330 	mov.w	r3, #45056	; 0xb000
    2002:	f2c4 0303 	movt	r3, #16387	; 0x4003
    2006:	429a      	cmp	r2, r3
    2008:	d117      	bne.n	203a <LPLD_ADC_Init+0x86>
  {
    i=0;
    200a:	f04f 0300 	mov.w	r3, #0
    200e:	75fb      	strb	r3, [r7, #23]
    SIM_SCGC6 |= SIM_SCGC6_ADC0_MASK;   // 开启ADC0时钟
    2010:	f44f 43e0 	mov.w	r3, #28672	; 0x7000
    2014:	f2c4 0304 	movt	r3, #16388	; 0x4004
    2018:	f44f 42e0 	mov.w	r2, #28672	; 0x7000
    201c:	f2c4 0204 	movt	r2, #16388	; 0x4004
    2020:	f502 5281 	add.w	r2, r2, #4128	; 0x1020
    2024:	f102 021c 	add.w	r2, r2, #28
    2028:	6812      	ldr	r2, [r2, #0]
    202a:	f042 6200 	orr.w	r2, r2, #134217728	; 0x8000000
    202e:	f503 5381 	add.w	r3, r3, #4128	; 0x1020
    2032:	f103 031c 	add.w	r3, r3, #28
    2036:	601a      	str	r2, [r3, #0]
    2038:	e021      	b.n	207e <LPLD_ADC_Init+0xca>
  }
  else if(adcx == ADC1)
    203a:	693a      	ldr	r2, [r7, #16]
    203c:	f44f 4330 	mov.w	r3, #45056	; 0xb000
    2040:	f2c4 030b 	movt	r3, #16395	; 0x400b
    2044:	429a      	cmp	r2, r3
    2046:	d117      	bne.n	2078 <LPLD_ADC_Init+0xc4>
  {
    i=1;
    2048:	f04f 0301 	mov.w	r3, #1
    204c:	75fb      	strb	r3, [r7, #23]
    SIM_SCGC3 |= SIM_SCGC3_ADC1_MASK;   // 开启ADC1时钟
    204e:	f44f 43e0 	mov.w	r3, #28672	; 0x7000
    2052:	f2c4 0304 	movt	r3, #16388	; 0x4004
    2056:	f44f 42e0 	mov.w	r2, #28672	; 0x7000
    205a:	f2c4 0204 	movt	r2, #16388	; 0x4004
    205e:	f502 5281 	add.w	r2, r2, #4128	; 0x1020
    2062:	f102 0210 	add.w	r2, r2, #16
    2066:	6812      	ldr	r2, [r2, #0]
    2068:	f042 6200 	orr.w	r2, r2, #134217728	; 0x8000000
    206c:	f503 5381 	add.w	r3, r3, #4128	; 0x1020
    2070:	f103 0310 	add.w	r3, r3, #16
    2074:	601a      	str	r2, [r3, #0]
    2076:	e002      	b.n	207e <LPLD_ADC_Init+0xca>
  }
  else 
  {
    return 0;
    2078:	f04f 0300 	mov.w	r3, #0
    207c:	e078      	b.n	2170 <LPLD_ADC_Init+0x1bc>
  }

  if(adc_init_structure.ADC_CalEnable == TRUE)
    207e:	f897 302b 	ldrb.w	r3, [r7, #43]	; 0x2b
    2082:	2b01      	cmp	r3, #1
    2084:	d102      	bne.n	208c <LPLD_ADC_Init+0xd8>
    LPLD_ADC_Cal(adcx);  //进行ADC校准
    2086:	6938      	ldr	r0, [r7, #16]
    2088:	f000 fb36 	bl	26f8 <LPLD_ADC_Cal>
  
  //设置ADCCFG1寄存器
  adcx->CFG1  &=   (~ADC_CFG1_ADLPC_MASK);         // 重新为正常使用进行配置
    208c:	693b      	ldr	r3, [r7, #16]
    208e:	689b      	ldr	r3, [r3, #8]
    2090:	f023 0280 	bic.w	r2, r3, #128	; 0x80
    2094:	693b      	ldr	r3, [r7, #16]
    2096:	609a      	str	r2, [r3, #8]
  adcx->CFG1  |=    ADC_CFG1_ADIV(ADIV_1)          // ADC输入时钟分频为 1
    2098:	693b      	ldr	r3, [r7, #16]
    209a:	689a      	ldr	r2, [r3, #8]
                  | (time)                           // 设置长短时间采样模式
                  | ADC_CFG1_ADICLK(ADICLK_BUS_2)  // ADC输入时钟源为 BusClk
    209c:	7b7b      	ldrb	r3, [r7, #13]
    209e:	f043 0301 	orr.w	r3, r3, #1
    20a2:	b2db      	uxtb	r3, r3
    20a4:	4619      	mov	r1, r3
                  | ADC_CFG1_MODE(mode);           //设置ADC转换精度
    20a6:	7bbb      	ldrb	r3, [r7, #14]
    20a8:	ea4f 0383 	mov.w	r3, r3, lsl #2
    20ac:	f003 030c 	and.w	r3, r3, #12
    20b0:	430b      	orrs	r3, r1
  if(adc_init_structure.ADC_CalEnable == TRUE)
    LPLD_ADC_Cal(adcx);  //进行ADC校准
  
  //设置ADCCFG1寄存器
  adcx->CFG1  &=   (~ADC_CFG1_ADLPC_MASK);         // 重新为正常使用进行配置
  adcx->CFG1  |=    ADC_CFG1_ADIV(ADIV_1)          // ADC输入时钟分频为 1
    20b2:	431a      	orrs	r2, r3
    20b4:	693b      	ldr	r3, [r7, #16]
    20b6:	609a      	str	r2, [r3, #8]
                  | (time)                           // 设置长短时间采样模式
                  | ADC_CFG1_ADICLK(ADICLK_BUS_2)  // ADC输入时钟源为 BusClk
                  | ADC_CFG1_MODE(mode);           //设置ADC转换精度

  //设置ADCCFG2寄存器
  adcx->CFG2 &=  (~ADC_CFG2_ADACKEN_MASK);   //禁用异步时钟输出
    20b8:	693b      	ldr	r3, [r7, #16]
    20ba:	68db      	ldr	r3, [r3, #12]
    20bc:	f023 0208 	bic.w	r2, r3, #8
    20c0:	693b      	ldr	r3, [r7, #16]
    20c2:	60da      	str	r2, [r3, #12]
  adcx->CFG2 |=    (muxab)                      // ADC复用选择
    20c4:	693b      	ldr	r3, [r7, #16]
    20c6:	68da      	ldr	r2, [r3, #12]
                 | (ADC_CFG2_ADHSC_MASK)        // 高速转换
                 | ADC_CFG2_ADLSTS(ltime);    // 长采样时间时钟周期选择
    20c8:	7abb      	ldrb	r3, [r7, #10]
    20ca:	f043 0304 	orr.w	r3, r3, #4
    20ce:	b2db      	uxtb	r3, r3
    20d0:	4619      	mov	r1, r3
    20d2:	7b3b      	ldrb	r3, [r7, #12]
    20d4:	f003 0303 	and.w	r3, r3, #3
    20d8:	430b      	orrs	r3, r1
                  | ADC_CFG1_ADICLK(ADICLK_BUS_2)  // ADC输入时钟源为 BusClk
                  | ADC_CFG1_MODE(mode);           //设置ADC转换精度

  //设置ADCCFG2寄存器
  adcx->CFG2 &=  (~ADC_CFG2_ADACKEN_MASK);   //禁用异步时钟输出
  adcx->CFG2 |=    (muxab)                      // ADC复用选择
    20da:	431a      	orrs	r2, r3
    20dc:	693b      	ldr	r3, [r7, #16]
    20de:	60da      	str	r2, [r3, #12]
                 | (ADC_CFG2_ADHSC_MASK)        // 高速转换
                 | ADC_CFG2_ADLSTS(ltime);    // 长采样时间时钟周期选择
                                              // 总采样周期见K60技术文档 page:840
  //用于设定阈值
  adcx->CV1  = 0x1234u ; 
    20e0:	693b      	ldr	r3, [r7, #16]
    20e2:	f241 2234 	movw	r2, #4660	; 0x1234
    20e6:	619a      	str	r2, [r3, #24]
  adcx->CV2  = 0x5678u ;
    20e8:	693b      	ldr	r3, [r7, #16]
    20ea:	f245 6278 	movw	r2, #22136	; 0x5678
    20ee:	61da      	str	r2, [r3, #28]
 
  adcx->SC2  &= ((~ADC_SC2_ACFE_MASK)     //关闭比较功能 
    20f0:	693b      	ldr	r3, [r7, #16]
    20f2:	6a1b      	ldr	r3, [r3, #32]
    20f4:	f023 0224 	bic.w	r2, r3, #36	; 0x24
    20f8:	693b      	ldr	r3, [r7, #16]
    20fa:	621a      	str	r2, [r3, #32]
                 & (~ADC_SC2_DMAEN_MASK)); //关闭DMA
  adcx->SC2  |=  (hwtrg & ADC_SC2_ADTRG_MASK) //设置触发方式
    20fc:	693b      	ldr	r3, [r7, #16]
    20fe:	6a1a      	ldr	r2, [r3, #32]
    2100:	7a3b      	ldrb	r3, [r7, #8]
    2102:	f003 0340 	and.w	r3, r3, #64	; 0x40
    2106:	4313      	orrs	r3, r2
    2108:	f043 0218 	orr.w	r2, r3, #24
    210c:	693b      	ldr	r3, [r7, #16]
    210e:	621a      	str	r2, [r3, #32]
                 |  ADC_SC2_ACREN_MASK          //使能范围比较
                 |  ADC_SC2_ACFGT_MASK          //使能大于比较功能
                 |  ADC_SC2_REFSEL(REFSEL_EXT); //选择外部参考源VREFH和VREFL
  
  if(adc_init_structure.ADC_DmaEnable == TRUE) 
    2110:	f897 302d 	ldrb.w	r3, [r7, #45]	; 0x2d
    2114:	2b01      	cmp	r3, #1
    2116:	d105      	bne.n	2124 <LPLD_ADC_Init+0x170>
    adcx->SC2  |= ADC_SC2_DMAEN_MASK;           //使能DMA
    2118:	693b      	ldr	r3, [r7, #16]
    211a:	6a1b      	ldr	r3, [r3, #32]
    211c:	f043 0204 	orr.w	r2, r3, #4
    2120:	693b      	ldr	r3, [r7, #16]
    2122:	621a      	str	r2, [r3, #32]

  adcx->SC3  &=  (~ADC_SC3_CAL_MASK)          //关闭校准
    2124:	693b      	ldr	r3, [r7, #16]
    2126:	6a5b      	ldr	r3, [r3, #36]	; 0x24
    2128:	f023 0288 	bic.w	r2, r3, #136	; 0x88
    212c:	693b      	ldr	r3, [r7, #16]
    212e:	625a      	str	r2, [r3, #36]	; 0x24
                 & (~ADC_SC3_ADCO_MASK);         //选择一次转换
  adcx->SC3  |=  avg;                        //硬件平均
    2130:	693b      	ldr	r3, [r7, #16]
    2132:	6a5a      	ldr	r2, [r3, #36]	; 0x24
    2134:	7afb      	ldrb	r3, [r7, #11]
    2136:	431a      	orrs	r2, r3
    2138:	693b      	ldr	r3, [r7, #16]
    213a:	625a      	str	r2, [r3, #36]	; 0x24
  
  adcx->PGA  = pga<<ADC_PGA_PGAG_SHIFT; 
    213c:	7a7b      	ldrb	r3, [r7, #9]
    213e:	ea4f 4303 	mov.w	r3, r3, lsl #16
    2142:	461a      	mov	r2, r3
    2144:	693b      	ldr	r3, [r7, #16]
    2146:	651a      	str	r2, [r3, #80]	; 0x50
  
  //校准完毕后再重新初始化ADC寄存器
  //adcx->SC1[0] = ADC_SC1_ADCH(AD31);    //复位SC1
  adcx->SC1[hwtrg & 0x01] = diff;         //设置单端、差分输入
    2148:	7a3b      	ldrb	r3, [r7, #8]
    214a:	f003 0201 	and.w	r2, r3, #1
    214e:	7bf9      	ldrb	r1, [r7, #15]
    2150:	693b      	ldr	r3, [r7, #16]
    2152:	f843 1022 	str.w	r1, [r3, r2, lsl #2]
  
  if(isr_func!= NULL)
    2156:	687b      	ldr	r3, [r7, #4]
    2158:	2b00      	cmp	r3, #0
    215a:	d007      	beq.n	216c <LPLD_ADC_Init+0x1b8>
  {
    ADC_ISR[i] = isr_func;
    215c:	7dfa      	ldrb	r2, [r7, #23]
    215e:	f241 53fc 	movw	r3, #5628	; 0x15fc
    2162:	f6c1 73ff 	movt	r3, #8191	; 0x1fff
    2166:	6879      	ldr	r1, [r7, #4]
    2168:	f843 1022 	str.w	r1, [r3, r2, lsl #2]
  }
  
  return 1;
    216c:	f04f 0301 	mov.w	r3, #1
}
    2170:	4618      	mov	r0, r3
    2172:	f107 0718 	add.w	r7, r7, #24
    2176:	46bd      	mov	sp, r7
    2178:	e8bd 4080 	ldmia.w	sp!, {r7, lr}
    217c:	b004      	add	sp, #16
    217e:	4770      	bx	lr

00002180 <LPLD_ADC_Deinit>:
 * 输出:
 *    0--配置错误
 *    1--配置成功
 */
uint8 LPLD_ADC_Deinit(ADC_InitTypeDef adc_init_structure)
{
    2180:	b084      	sub	sp, #16
    2182:	b480      	push	{r7}
    2184:	b083      	sub	sp, #12
    2186:	af00      	add	r7, sp, #0
    2188:	f107 0c10 	add.w	ip, r7, #16
    218c:	e88c 000f 	stmia.w	ip, {r0, r1, r2, r3}
  ADC_MemMapPtr adcx = adc_init_structure.ADC_Adcx;
    2190:	693b      	ldr	r3, [r7, #16]
    2192:	607b      	str	r3, [r7, #4]
  uint8 hwtrg = adc_init_structure.ADC_HwTrgCfg;
    2194:	7f3b      	ldrb	r3, [r7, #28]
    2196:	70fb      	strb	r3, [r7, #3]
  
  adcx->SC1[hwtrg & 0x01] = ADC_SC1_ADCH(AD31);    //复位SC1
    2198:	78fb      	ldrb	r3, [r7, #3]
    219a:	f003 0201 	and.w	r2, r3, #1
    219e:	687b      	ldr	r3, [r7, #4]
    21a0:	f04f 011f 	mov.w	r1, #31
    21a4:	f843 1022 	str.w	r1, [r3, r2, lsl #2]
  
  //配置ADC时钟
  if(adcx == ADC0)
    21a8:	687a      	ldr	r2, [r7, #4]
    21aa:	f44f 4330 	mov.w	r3, #45056	; 0xb000
    21ae:	f2c4 0303 	movt	r3, #16387	; 0x4003
    21b2:	429a      	cmp	r2, r3
    21b4:	d114      	bne.n	21e0 <LPLD_ADC_Deinit+0x60>
  {
    SIM_SCGC6 &= ~(SIM_SCGC6_ADC0_MASK);   // 关闭ADC0时钟
    21b6:	f44f 43e0 	mov.w	r3, #28672	; 0x7000
    21ba:	f2c4 0304 	movt	r3, #16388	; 0x4004
    21be:	f44f 42e0 	mov.w	r2, #28672	; 0x7000
    21c2:	f2c4 0204 	movt	r2, #16388	; 0x4004
    21c6:	f502 5281 	add.w	r2, r2, #4128	; 0x1020
    21ca:	f102 021c 	add.w	r2, r2, #28
    21ce:	6812      	ldr	r2, [r2, #0]
    21d0:	f022 6200 	bic.w	r2, r2, #134217728	; 0x8000000
    21d4:	f503 5381 	add.w	r3, r3, #4128	; 0x1020
    21d8:	f103 031c 	add.w	r3, r3, #28
    21dc:	601a      	str	r2, [r3, #0]
    21de:	e01e      	b.n	221e <LPLD_ADC_Deinit+0x9e>
  }
  else if(adcx == ADC1)
    21e0:	687a      	ldr	r2, [r7, #4]
    21e2:	f44f 4330 	mov.w	r3, #45056	; 0xb000
    21e6:	f2c4 030b 	movt	r3, #16395	; 0x400b
    21ea:	429a      	cmp	r2, r3
    21ec:	d114      	bne.n	2218 <LPLD_ADC_Deinit+0x98>
  {
    SIM_SCGC3 &= ~(SIM_SCGC3_ADC1_MASK);   // 关闭ADC1时钟
    21ee:	f44f 43e0 	mov.w	r3, #28672	; 0x7000
    21f2:	f2c4 0304 	movt	r3, #16388	; 0x4004
    21f6:	f44f 42e0 	mov.w	r2, #28672	; 0x7000
    21fa:	f2c4 0204 	movt	r2, #16388	; 0x4004
    21fe:	f502 5281 	add.w	r2, r2, #4128	; 0x1020
    2202:	f102 0210 	add.w	r2, r2, #16
    2206:	6812      	ldr	r2, [r2, #0]
    2208:	f022 6200 	bic.w	r2, r2, #134217728	; 0x8000000
    220c:	f503 5381 	add.w	r3, r3, #4128	; 0x1020
    2210:	f103 0310 	add.w	r3, r3, #16
    2214:	601a      	str	r2, [r3, #0]
    2216:	e002      	b.n	221e <LPLD_ADC_Deinit+0x9e>
  }
  else 
  {
    return 0;
    2218:	f04f 0300 	mov.w	r3, #0
    221c:	e001      	b.n	2222 <LPLD_ADC_Deinit+0xa2>
  }
  
  return 1;
    221e:	f04f 0301 	mov.w	r3, #1
}
    2222:	4618      	mov	r0, r3
    2224:	f107 070c 	add.w	r7, r7, #12
    2228:	46bd      	mov	sp, r7
    222a:	bc80      	pop	{r7}
    222c:	b004      	add	sp, #16
    222e:	4770      	bx	lr

00002230 <LPLD_ADC_Get>:
 * 输出:
 *    AD通道转换值(右对齐)，若为差分转换结果，则为二进制补码格式(需强制转换为int16)
 *
 */
uint16 LPLD_ADC_Get(ADC_MemMapPtr adcx, AdcChnEnum_Type chn)
{
    2230:	b480      	push	{r7}
    2232:	b083      	sub	sp, #12
    2234:	af00      	add	r7, sp, #0
    2236:	6078      	str	r0, [r7, #4]
    2238:	460b      	mov	r3, r1
    223a:	70fb      	strb	r3, [r7, #3]
  adcx->SC1[0] &= ~(ADC_SC1_AIEN_MASK);
    223c:	687b      	ldr	r3, [r7, #4]
    223e:	681b      	ldr	r3, [r3, #0]
    2240:	f023 0240 	bic.w	r2, r3, #64	; 0x40
    2244:	687b      	ldr	r3, [r7, #4]
    2246:	601a      	str	r2, [r3, #0]
  adcx->SC1[0] &= ~(ADC_SC1_ADCH_MASK);
    2248:	687b      	ldr	r3, [r7, #4]
    224a:	681b      	ldr	r3, [r3, #0]
    224c:	f023 021f 	bic.w	r2, r3, #31
    2250:	687b      	ldr	r3, [r7, #4]
    2252:	601a      	str	r2, [r3, #0]
  adcx->SC1[0] |= ADC_SC1_ADCH(chn);
    2254:	687b      	ldr	r3, [r7, #4]
    2256:	681a      	ldr	r2, [r3, #0]
    2258:	78fb      	ldrb	r3, [r7, #3]
    225a:	f003 031f 	and.w	r3, r3, #31
    225e:	431a      	orrs	r2, r3
    2260:	687b      	ldr	r3, [r7, #4]
    2262:	601a      	str	r2, [r3, #0]
  while((adcx->SC1[0]&ADC_SC1_COCO_MASK) == 0); //等待转换完成  
    2264:	bf00      	nop
    2266:	687b      	ldr	r3, [r7, #4]
    2268:	681b      	ldr	r3, [r3, #0]
    226a:	f003 0380 	and.w	r3, r3, #128	; 0x80
    226e:	2b00      	cmp	r3, #0
    2270:	d0f9      	beq.n	2266 <LPLD_ADC_Get+0x36>
  return adcx->R[0];
    2272:	687b      	ldr	r3, [r7, #4]
    2274:	691b      	ldr	r3, [r3, #16]
    2276:	b29b      	uxth	r3, r3
}
    2278:	4618      	mov	r0, r3
    227a:	f107 070c 	add.w	r7, r7, #12
    227e:	46bd      	mov	sp, r7
    2280:	bc80      	pop	{r7}
    2282:	4770      	bx	lr

00002284 <LPLD_ADC_EnableConversion>:
 * 输出:
 *    无
 *
 */
void LPLD_ADC_EnableConversion(ADC_MemMapPtr adcx, AdcChnEnum_Type chn, uint8 ab, boolean irq)
{
    2284:	b480      	push	{r7}
    2286:	b083      	sub	sp, #12
    2288:	af00      	add	r7, sp, #0
    228a:	6078      	str	r0, [r7, #4]
    228c:	70f9      	strb	r1, [r7, #3]
    228e:	70ba      	strb	r2, [r7, #2]
    2290:	707b      	strb	r3, [r7, #1]
  if(irq == TRUE)
    2292:	787b      	ldrb	r3, [r7, #1]
    2294:	2b01      	cmp	r3, #1
    2296:	d109      	bne.n	22ac <LPLD_ADC_EnableConversion+0x28>
  {
    adcx->SC1[ab] |= (ADC_SC1_AIEN_MASK);
    2298:	78ba      	ldrb	r2, [r7, #2]
    229a:	78b9      	ldrb	r1, [r7, #2]
    229c:	687b      	ldr	r3, [r7, #4]
    229e:	f853 3021 	ldr.w	r3, [r3, r1, lsl #2]
    22a2:	f043 0140 	orr.w	r1, r3, #64	; 0x40
    22a6:	687b      	ldr	r3, [r7, #4]
    22a8:	f843 1022 	str.w	r1, [r3, r2, lsl #2]
  }
  adcx->SC1[ab] &= ~(ADC_SC1_ADCH_MASK);
    22ac:	78ba      	ldrb	r2, [r7, #2]
    22ae:	78b9      	ldrb	r1, [r7, #2]
    22b0:	687b      	ldr	r3, [r7, #4]
    22b2:	f853 3021 	ldr.w	r3, [r3, r1, lsl #2]
    22b6:	f023 011f 	bic.w	r1, r3, #31
    22ba:	687b      	ldr	r3, [r7, #4]
    22bc:	f843 1022 	str.w	r1, [r3, r2, lsl #2]
  adcx->SC1[ab] |= ADC_SC1_ADCH(chn);
    22c0:	78ba      	ldrb	r2, [r7, #2]
    22c2:	78b9      	ldrb	r1, [r7, #2]
    22c4:	687b      	ldr	r3, [r7, #4]
    22c6:	f853 1021 	ldr.w	r1, [r3, r1, lsl #2]
    22ca:	78fb      	ldrb	r3, [r7, #3]
    22cc:	f003 031f 	and.w	r3, r3, #31
    22d0:	4319      	orrs	r1, r3
    22d2:	687b      	ldr	r3, [r7, #4]
    22d4:	f843 1022 	str.w	r1, [r3, r2, lsl #2]
}
    22d8:	f107 070c 	add.w	r7, r7, #12
    22dc:	46bd      	mov	sp, r7
    22de:	bc80      	pop	{r7}
    22e0:	4770      	bx	lr
    22e2:	bf00      	nop

000022e4 <LPLD_ADC_GetResult>:
 * 输出:
 *    AD通道转换值(右对齐)，若为差分转换结果，则为二进制补码格式(需强制转换为int16)
 *
 */
uint16 LPLD_ADC_GetResult(ADC_MemMapPtr adcx, uint8 ab)
{
    22e4:	b480      	push	{r7}
    22e6:	b083      	sub	sp, #12
    22e8:	af00      	add	r7, sp, #0
    22ea:	6078      	str	r0, [r7, #4]
    22ec:	460b      	mov	r3, r1
    22ee:	70fb      	strb	r3, [r7, #3]
  //参数检查
  return adcx->R[ab];
    22f0:	78fa      	ldrb	r2, [r7, #3]
    22f2:	687b      	ldr	r3, [r7, #4]
    22f4:	f102 0204 	add.w	r2, r2, #4
    22f8:	f853 3022 	ldr.w	r3, [r3, r2, lsl #2]
    22fc:	b29b      	uxth	r3, r3
}
    22fe:	4618      	mov	r0, r3
    2300:	f107 070c 	add.w	r7, r7, #12
    2304:	46bd      	mov	sp, r7
    2306:	bc80      	pop	{r7}
    2308:	4770      	bx	lr
    230a:	bf00      	nop

0000230c <LPLD_ADC_GetSC1nCOCO>:
*    0--SC1A寄存器COCO位置1
*    1--SC1B寄存器COCO位置1
 *
 */
uint8 LPLD_ADC_GetSC1nCOCO(ADC_MemMapPtr adcx)
{
    230c:	b480      	push	{r7}
    230e:	b083      	sub	sp, #12
    2310:	af00      	add	r7, sp, #0
    2312:	6078      	str	r0, [r7, #4]
  if(adcx->SC1[0] & ADC_SC1_COCO_MASK)
    2314:	687b      	ldr	r3, [r7, #4]
    2316:	681b      	ldr	r3, [r3, #0]
    2318:	f003 0380 	and.w	r3, r3, #128	; 0x80
    231c:	2b00      	cmp	r3, #0
    231e:	d002      	beq.n	2326 <LPLD_ADC_GetSC1nCOCO+0x1a>
    return 0;
    2320:	f04f 0300 	mov.w	r3, #0
    2324:	e00a      	b.n	233c <LPLD_ADC_GetSC1nCOCO+0x30>
  if(adcx->SC1[1] & ADC_SC1_COCO_MASK)
    2326:	687b      	ldr	r3, [r7, #4]
    2328:	685b      	ldr	r3, [r3, #4]
    232a:	f003 0380 	and.w	r3, r3, #128	; 0x80
    232e:	2b00      	cmp	r3, #0
    2330:	d002      	beq.n	2338 <LPLD_ADC_GetSC1nCOCO+0x2c>
    return 1;
    2332:	f04f 0301 	mov.w	r3, #1
    2336:	e001      	b.n	233c <LPLD_ADC_GetSC1nCOCO+0x30>
  return -1;
    2338:	f04f 03ff 	mov.w	r3, #255	; 0xff
}
    233c:	4618      	mov	r0, r3
    233e:	f107 070c 	add.w	r7, r7, #12
    2342:	46bd      	mov	sp, r7
    2344:	bc80      	pop	{r7}
    2346:	4770      	bx	lr

00002348 <LPLD_ADC_EnableIrq>:
 *    0--配置错误
 *    1--配置成功
 *
 */
uint8 LPLD_ADC_EnableIrq(ADC_InitTypeDef adc_init_structure)
{
    2348:	b084      	sub	sp, #16
    234a:	b580      	push	{r7, lr}
    234c:	b082      	sub	sp, #8
    234e:	af00      	add	r7, sp, #0
    2350:	f107 0c10 	add.w	ip, r7, #16
    2354:	e88c 000f 	stmia.w	ip, {r0, r1, r2, r3}
  ADC_MemMapPtr adcx = adc_init_structure.ADC_Adcx;
    2358:	693b      	ldr	r3, [r7, #16]
    235a:	607b      	str	r3, [r7, #4]
  
  if(adcx == ADC0)
    235c:	687a      	ldr	r2, [r7, #4]
    235e:	f44f 4330 	mov.w	r3, #45056	; 0xb000
    2362:	f2c4 0303 	movt	r3, #16387	; 0x4003
    2366:	429a      	cmp	r2, r3
    2368:	d104      	bne.n	2374 <LPLD_ADC_EnableIrq+0x2c>
    enable_irq(INT_ADC0 - 16);
    236a:	f04f 0039 	mov.w	r0, #57	; 0x39
    236e:	f7fe fbcf 	bl	b10 <enable_irq>
    2372:	e00e      	b.n	2392 <LPLD_ADC_EnableIrq+0x4a>
  else if(adcx == ADC1)
    2374:	687a      	ldr	r2, [r7, #4]
    2376:	f44f 4330 	mov.w	r3, #45056	; 0xb000
    237a:	f2c4 030b 	movt	r3, #16395	; 0x400b
    237e:	429a      	cmp	r2, r3
    2380:	d104      	bne.n	238c <LPLD_ADC_EnableIrq+0x44>
    enable_irq (INT_ADC1 - 16);
    2382:	f04f 003a 	mov.w	r0, #58	; 0x3a
    2386:	f7fe fbc3 	bl	b10 <enable_irq>
    238a:	e002      	b.n	2392 <LPLD_ADC_EnableIrq+0x4a>
  else
    return 0;
    238c:	f04f 0300 	mov.w	r3, #0
    2390:	e001      	b.n	2396 <LPLD_ADC_EnableIrq+0x4e>
  return 1;
    2392:	f04f 0301 	mov.w	r3, #1
}
    2396:	4618      	mov	r0, r3
    2398:	f107 0708 	add.w	r7, r7, #8
    239c:	46bd      	mov	sp, r7
    239e:	e8bd 4080 	ldmia.w	sp!, {r7, lr}
    23a2:	b004      	add	sp, #16
    23a4:	4770      	bx	lr
    23a6:	bf00      	nop

000023a8 <LPLD_ADC_DisableIrq>:
 *    0--配置错误
 *    1--配置成功
 *
 */
uint8 LPLD_ADC_DisableIrq(ADC_InitTypeDef adc_init_structure)
{
    23a8:	b084      	sub	sp, #16
    23aa:	b580      	push	{r7, lr}
    23ac:	b082      	sub	sp, #8
    23ae:	af00      	add	r7, sp, #0
    23b0:	f107 0c10 	add.w	ip, r7, #16
    23b4:	e88c 000f 	stmia.w	ip, {r0, r1, r2, r3}
  ADC_MemMapPtr adcx = adc_init_structure.ADC_Adcx;
    23b8:	693b      	ldr	r3, [r7, #16]
    23ba:	607b      	str	r3, [r7, #4]
  
  if(adcx == ADC0)
    23bc:	687a      	ldr	r2, [r7, #4]
    23be:	f44f 4330 	mov.w	r3, #45056	; 0xb000
    23c2:	f2c4 0303 	movt	r3, #16387	; 0x4003
    23c6:	429a      	cmp	r2, r3
    23c8:	d104      	bne.n	23d4 <LPLD_ADC_DisableIrq+0x2c>
      disable_irq(INT_ADC0 - 16);
    23ca:	f04f 0039 	mov.w	r0, #57	; 0x39
    23ce:	f7fe fc63 	bl	c98 <disable_irq>
    23d2:	e00e      	b.n	23f2 <LPLD_ADC_DisableIrq+0x4a>
  else if(adcx == ADC1)
    23d4:	687a      	ldr	r2, [r7, #4]
    23d6:	f44f 4330 	mov.w	r3, #45056	; 0xb000
    23da:	f2c4 030b 	movt	r3, #16395	; 0x400b
    23de:	429a      	cmp	r2, r3
    23e0:	d104      	bne.n	23ec <LPLD_ADC_DisableIrq+0x44>
      disable_irq(INT_ADC1 - 16);
    23e2:	f04f 003a 	mov.w	r0, #58	; 0x3a
    23e6:	f7fe fc57 	bl	c98 <disable_irq>
    23ea:	e002      	b.n	23f2 <LPLD_ADC_DisableIrq+0x4a>
  else
    return 0;
    23ec:	f04f 0300 	mov.w	r3, #0
    23f0:	e001      	b.n	23f6 <LPLD_ADC_DisableIrq+0x4e>

  return 1;
    23f2:	f04f 0301 	mov.w	r3, #1
}
    23f6:	4618      	mov	r0, r3
    23f8:	f107 0708 	add.w	r7, r7, #8
    23fc:	46bd      	mov	sp, r7
    23fe:	e8bd 4080 	ldmia.w	sp!, {r7, lr}
    2402:	b004      	add	sp, #16
    2404:	4770      	bx	lr
    2406:	bf00      	nop

00002408 <LPLD_ADC_Chn_Enable>:
 *    0--配置错误
 *    1--配置成功
 *
 */
uint8 LPLD_ADC_Chn_Enable(ADC_MemMapPtr adcx, AdcChnEnum_Type chn)
{
    2408:	b480      	push	{r7}
    240a:	b085      	sub	sp, #20
    240c:	af00      	add	r7, sp, #0
    240e:	6078      	str	r0, [r7, #4]
    2410:	460b      	mov	r3, r1
    2412:	70fb      	strb	r3, [r7, #3]
  //判断复用引脚是a或b
  uint8 mux = (adcx->CFG2 & ADC_CFG2_MUXSEL_MASK)>>ADC_CFG2_MUXSEL_SHIFT;
    2414:	687b      	ldr	r3, [r7, #4]
    2416:	68db      	ldr	r3, [r3, #12]
    2418:	f003 0310 	and.w	r3, r3, #16
    241c:	ea4f 1313 	mov.w	r3, r3, lsr #4
    2420:	73fb      	strb	r3, [r7, #15]
    
  if(chn > AD30)
    2422:	78fb      	ldrb	r3, [r7, #3]
    2424:	2b1e      	cmp	r3, #30
    2426:	d902      	bls.n	242e <LPLD_ADC_Chn_Enable+0x26>
    return 0;
    2428:	f04f 0300 	mov.w	r3, #0
    242c:	e15d      	b.n	26ea <LPLD_ADC_Chn_Enable+0x2e2>
  
  //不同的通道对应不同的引脚，因此需要判断并配置
  if(adcx == ADC0)
    242e:	687a      	ldr	r2, [r7, #4]
    2430:	f44f 4330 	mov.w	r3, #45056	; 0xb000
    2434:	f2c4 0303 	movt	r3, #16387	; 0x4003
    2438:	429a      	cmp	r2, r3
    243a:	f040 80ad 	bne.w	2598 <LPLD_ADC_Chn_Enable+0x190>
  {
    switch(chn)
    243e:	78fb      	ldrb	r3, [r7, #3]
    2440:	2b1e      	cmp	r3, #30
    2442:	f200 80a6 	bhi.w	2592 <LPLD_ADC_Chn_Enable+0x18a>
    2446:	a201      	add	r2, pc, #4	; (adr r2, 244c <LPLD_ADC_Chn_Enable+0x44>)
    2448:	f852 f023 	ldr.w	pc, [r2, r3, lsl #2]
    244c:	000026d5 	ldrdeq	r2, [r0], -r5
    2450:	000026d5 	ldrdeq	r2, [r0], -r5
    2454:	000026d5 	ldrdeq	r2, [r0], -r5
    2458:	000026d5 	ldrdeq	r2, [r0], -r5
    245c:	000024c9 	andeq	r2, r0, r9, asr #9
    2460:	000024e1 	andeq	r2, r0, r1, ror #9
    2464:	000024f9 	strdeq	r2, [r0], -r9
    2468:	000024f9 	strdeq	r2, [r0], -r9
    246c:	00002519 	andeq	r2, r0, r9, lsl r5
    2470:	00002519 	andeq	r2, r0, r9, lsl r5
    2474:	00002531 	andeq	r2, r0, r1, lsr r5
    2478:	00002531 	andeq	r2, r0, r1, lsr r5
    247c:	00002549 	andeq	r2, r0, r9, asr #10
    2480:	00002549 	andeq	r2, r0, r9, asr #10
    2484:	00002561 	andeq	r2, r0, r1, ror #10
    2488:	00002561 	andeq	r2, r0, r1, ror #10
    248c:	000026d5 	ldrdeq	r2, [r0], -r5
    2490:	00002579 	andeq	r2, r0, r9, ror r5
    2494:	00002579 	andeq	r2, r0, r9, ror r5
    2498:	000026d5 	ldrdeq	r2, [r0], -r5
    249c:	000026d5 	ldrdeq	r2, [r0], -r5
    24a0:	00002593 	muleq	r0, r3, r5
    24a4:	00002593 	muleq	r0, r3, r5
    24a8:	000026d5 	ldrdeq	r2, [r0], -r5
    24ac:	00002593 	muleq	r0, r3, r5
    24b0:	00002593 	muleq	r0, r3, r5
    24b4:	000026d5 	ldrdeq	r2, [r0], -r5
    24b8:	000026d5 	ldrdeq	r2, [r0], -r5
    24bc:	00002593 	muleq	r0, r3, r5
    24c0:	000026d5 	ldrdeq	r2, [r0], -r5
    24c4:	000026d5 	ldrdeq	r2, [r0], -r5
      case DAD1:   //ADC0_DP1 -- PGA2_DP
      case DAD2:   //PGA0_DP
      case DAD3:   //ADC0_DP3 -- PGA1_DP
        break;
      case AD4:   //ADC0_SE4b -- PTC2     
        if(mux == 1)    //b
    24c8:	7bfb      	ldrb	r3, [r7, #15]
    24ca:	2b01      	cmp	r3, #1
    24cc:	f040 8104 	bne.w	26d8 <LPLD_ADC_Chn_Enable+0x2d0>
          PORTC->PCR[2] =  PORT_PCR_MUX(0);
    24d0:	f44f 4330 	mov.w	r3, #45056	; 0xb000
    24d4:	f2c4 0304 	movt	r3, #16388	; 0x4004
    24d8:	f04f 0200 	mov.w	r2, #0
    24dc:	609a      	str	r2, [r3, #8]
        break;
    24de:	e0fb      	b.n	26d8 <LPLD_ADC_Chn_Enable+0x2d0>
      case AD5:   //ADC0_SE5b -- PTD1     
        if(mux == 1)    //b
    24e0:	7bfb      	ldrb	r3, [r7, #15]
    24e2:	2b01      	cmp	r3, #1
    24e4:	f040 80fa 	bne.w	26dc <LPLD_ADC_Chn_Enable+0x2d4>
          PORTD->PCR[1] =  PORT_PCR_MUX(0);
    24e8:	f44f 4340 	mov.w	r3, #49152	; 0xc000
    24ec:	f2c4 0304 	movt	r3, #16388	; 0x4004
    24f0:	f04f 0200 	mov.w	r2, #0
    24f4:	605a      	str	r2, [r3, #4]
        break;
    24f6:	e0f1      	b.n	26dc <LPLD_ADC_Chn_Enable+0x2d4>
      case AD6:   //ADC0_SE6b -- PTD5
      case AD7:   //ADC0_SE7b -- PTD6     
        if(mux == 1)    //b
    24f8:	7bfb      	ldrb	r3, [r7, #15]
    24fa:	2b01      	cmp	r3, #1
    24fc:	f040 80f0 	bne.w	26e0 <LPLD_ADC_Chn_Enable+0x2d8>
          PORTD->PCR[chn-1] =  PORT_PCR_MUX(0);
    2500:	f44f 4340 	mov.w	r3, #49152	; 0xc000
    2504:	f2c4 0304 	movt	r3, #16388	; 0x4004
    2508:	78fa      	ldrb	r2, [r7, #3]
    250a:	f102 32ff 	add.w	r2, r2, #4294967295
    250e:	f04f 0100 	mov.w	r1, #0
    2512:	f843 1022 	str.w	r1, [r3, r2, lsl #2]
        break;
    2516:	e0e3      	b.n	26e0 <LPLD_ADC_Chn_Enable+0x2d8>
      case AD8:  //ADC0_SE8 -- PTB0
      case AD9:  //ADC0_SE9 -- PTB1
        PORTB->PCR[chn-8] =  PORT_PCR_MUX(0);
    2518:	f44f 4320 	mov.w	r3, #40960	; 0xa000
    251c:	f2c4 0304 	movt	r3, #16388	; 0x4004
    2520:	78fa      	ldrb	r2, [r7, #3]
    2522:	f1a2 0208 	sub.w	r2, r2, #8
    2526:	f04f 0100 	mov.w	r1, #0
    252a:	f843 1022 	str.w	r1, [r3, r2, lsl #2]
        break;
    252e:	e0da      	b.n	26e6 <LPLD_ADC_Chn_Enable+0x2de>
      case AD10:  //ADC0_SE10 -- PTA7
      case AD11:  //ADC0_SE11 -- PTA8
        PORTA->PCR[chn-3] =  PORT_PCR_MUX(0);
    2530:	f44f 4310 	mov.w	r3, #36864	; 0x9000
    2534:	f2c4 0304 	movt	r3, #16388	; 0x4004
    2538:	78fa      	ldrb	r2, [r7, #3]
    253a:	f1a2 0203 	sub.w	r2, r2, #3
    253e:	f04f 0100 	mov.w	r1, #0
    2542:	f843 1022 	str.w	r1, [r3, r2, lsl #2]
        break;
    2546:	e0ce      	b.n	26e6 <LPLD_ADC_Chn_Enable+0x2de>
      case AD12:  //ADC0_SE12 -- PTB2
      case AD13:  //ADC0_SE13 -- PTB3
        PORTB->PCR[chn-10] =  PORT_PCR_MUX(0);
    2548:	f44f 4320 	mov.w	r3, #40960	; 0xa000
    254c:	f2c4 0304 	movt	r3, #16388	; 0x4004
    2550:	78fa      	ldrb	r2, [r7, #3]
    2552:	f1a2 020a 	sub.w	r2, r2, #10
    2556:	f04f 0100 	mov.w	r1, #0
    255a:	f843 1022 	str.w	r1, [r3, r2, lsl #2]
        break;
    255e:	e0c2      	b.n	26e6 <LPLD_ADC_Chn_Enable+0x2de>
      case AD14:  //ADC0_SE14 -- PTC0
      case AD15:  //ADC0_SE15 -- PTC1
        PORTC->PCR[chn-14] =  PORT_PCR_MUX(0);
    2560:	f44f 4330 	mov.w	r3, #45056	; 0xb000
    2564:	f2c4 0304 	movt	r3, #16388	; 0x4004
    2568:	78fa      	ldrb	r2, [r7, #3]
    256a:	f1a2 020e 	sub.w	r2, r2, #14
    256e:	f04f 0100 	mov.w	r1, #0
    2572:	f843 1022 	str.w	r1, [r3, r2, lsl #2]
        break;
    2576:	e0b6      	b.n	26e6 <LPLD_ADC_Chn_Enable+0x2de>
      case AD16:   //ADC0_SE16
        break;
      case AD17:   //ADC0_SE17 -- PTE24
      case AD18:   //ADC0_SE18 -- PTE25
        PORTE->PCR[chn+7] =  PORT_PCR_MUX(0);
    2578:	f44f 4350 	mov.w	r3, #53248	; 0xd000
    257c:	f2c4 0304 	movt	r3, #16388	; 0x4004
    2580:	78fa      	ldrb	r2, [r7, #3]
    2582:	f102 0207 	add.w	r2, r2, #7
    2586:	f04f 0100 	mov.w	r1, #0
    258a:	f843 1022 	str.w	r1, [r3, r2, lsl #2]
        break;
    258e:	bf00      	nop
    2590:	e0a9      	b.n	26e6 <LPLD_ADC_Chn_Enable+0x2de>
      case AD27:   //Bandgap (S.E)
      case AD29:   //VREFH (S.E)
      case AD30:   //VREFL
        break;
      default:
        return 0;  
    2592:	f04f 0300 	mov.w	r3, #0
    2596:	e0a8      	b.n	26ea <LPLD_ADC_Chn_Enable+0x2e2>
    }
  }
  else if(adcx == ADC1)
    2598:	687a      	ldr	r2, [r7, #4]
    259a:	f44f 4330 	mov.w	r3, #45056	; 0xb000
    259e:	f2c4 030b 	movt	r3, #16395	; 0x400b
    25a2:	429a      	cmp	r2, r3
    25a4:	f040 8093 	bne.w	26ce <LPLD_ADC_Chn_Enable+0x2c6>
  {
    switch(chn)
    25a8:	78fb      	ldrb	r3, [r7, #3]
    25aa:	2b1e      	cmp	r3, #30
    25ac:	f200 808c 	bhi.w	26c8 <LPLD_ADC_Chn_Enable+0x2c0>
    25b0:	a201      	add	r2, pc, #4	; (adr r2, 25b8 <LPLD_ADC_Chn_Enable+0x1b0>)
    25b2:	f852 f023 	ldr.w	pc, [r2, r3, lsl #2]
    25b6:	bf00      	nop
    25b8:	000026e5 	andeq	r2, r0, r5, ror #13
    25bc:	000026e5 	andeq	r2, r0, r5, ror #13
    25c0:	000026e5 	andeq	r2, r0, r5, ror #13
    25c4:	000026e5 	andeq	r2, r0, r5, ror #13
    25c8:	00002635 	andeq	r2, r0, r5, lsr r6
    25cc:	00002635 	andeq	r2, r0, r5, lsr r6
    25d0:	00002635 	andeq	r2, r0, r5, lsr r6
    25d4:	00002635 	andeq	r2, r0, r5, lsr r6
    25d8:	0000266b 	andeq	r2, r0, fp, ror #12
    25dc:	0000266b 	andeq	r2, r0, fp, ror #12
    25e0:	00002683 	andeq	r2, r0, r3, lsl #13
    25e4:	00002683 	andeq	r2, r0, r3, lsl #13
    25e8:	00002683 	andeq	r2, r0, r3, lsl #13
    25ec:	00002683 	andeq	r2, r0, r3, lsl #13
    25f0:	0000269b 	muleq	r0, fp, r6
    25f4:	0000269b 	muleq	r0, fp, r6
    25f8:	000026e5 	andeq	r2, r0, r5, ror #13
    25fc:	000026b3 			; <UNDEFINED> instruction: 0x000026b3
    2600:	000026e5 	andeq	r2, r0, r5, ror #13
    2604:	000026e5 	andeq	r2, r0, r5, ror #13
    2608:	000026e5 	andeq	r2, r0, r5, ror #13
    260c:	000026c9 	andeq	r2, r0, r9, asr #13
    2610:	000026c9 	andeq	r2, r0, r9, asr #13
    2614:	000026e5 	andeq	r2, r0, r5, ror #13
    2618:	000026c9 	andeq	r2, r0, r9, asr #13
    261c:	000026c9 	andeq	r2, r0, r9, asr #13
    2620:	000026e5 	andeq	r2, r0, r5, ror #13
    2624:	000026e5 	andeq	r2, r0, r5, ror #13
    2628:	000026c9 	andeq	r2, r0, r9, asr #13
    262c:	000026e5 	andeq	r2, r0, r5, ror #13
    2630:	000026e5 	andeq	r2, r0, r5, ror #13
        break;
      case AD4:   //ADC1_SE4a -- PTE0     //ADC1_SE4b -- PTC8
      case AD5:   //ADC1_SE5a -- PTE1     //ADC1_SE5b -- PTC9
      case AD6:   //ADC1_SE6a -- PTE2     //ADC1_SE6b -- PTC10
      case AD7:   //ADC1_SE7a -- PTE3     //ADC1_SE7b -- PTC11
        if(mux == 0)    //a
    2634:	7bfb      	ldrb	r3, [r7, #15]
    2636:	2b00      	cmp	r3, #0
    2638:	d10b      	bne.n	2652 <LPLD_ADC_Chn_Enable+0x24a>
          PORTE->PCR[chn-4] =  PORT_PCR_MUX(0);
    263a:	f44f 4350 	mov.w	r3, #53248	; 0xd000
    263e:	f2c4 0304 	movt	r3, #16388	; 0x4004
    2642:	78fa      	ldrb	r2, [r7, #3]
    2644:	f1a2 0204 	sub.w	r2, r2, #4
    2648:	f04f 0100 	mov.w	r1, #0
    264c:	f843 1022 	str.w	r1, [r3, r2, lsl #2]
        else            //b
          PORTC->PCR[chn+4] =  PORT_PCR_MUX(0);
        break;
    2650:	e049      	b.n	26e6 <LPLD_ADC_Chn_Enable+0x2de>
      case AD6:   //ADC1_SE6a -- PTE2     //ADC1_SE6b -- PTC10
      case AD7:   //ADC1_SE7a -- PTE3     //ADC1_SE7b -- PTC11
        if(mux == 0)    //a
          PORTE->PCR[chn-4] =  PORT_PCR_MUX(0);
        else            //b
          PORTC->PCR[chn+4] =  PORT_PCR_MUX(0);
    2652:	f44f 4330 	mov.w	r3, #45056	; 0xb000
    2656:	f2c4 0304 	movt	r3, #16388	; 0x4004
    265a:	78fa      	ldrb	r2, [r7, #3]
    265c:	f102 0204 	add.w	r2, r2, #4
    2660:	f04f 0100 	mov.w	r1, #0
    2664:	f843 1022 	str.w	r1, [r3, r2, lsl #2]
        break;
    2668:	e03d      	b.n	26e6 <LPLD_ADC_Chn_Enable+0x2de>
      case AD8:  //ADC1_SE8 -- PTB0
      case AD9:  //ADC1_SE9 -- PTB1
        PORTB->PCR[chn-8] =  PORT_PCR_MUX(0);
    266a:	f44f 4320 	mov.w	r3, #40960	; 0xa000
    266e:	f2c4 0304 	movt	r3, #16388	; 0x4004
    2672:	78fa      	ldrb	r2, [r7, #3]
    2674:	f1a2 0208 	sub.w	r2, r2, #8
    2678:	f04f 0100 	mov.w	r1, #0
    267c:	f843 1022 	str.w	r1, [r3, r2, lsl #2]
        break;
    2680:	e031      	b.n	26e6 <LPLD_ADC_Chn_Enable+0x2de>
      case AD10:  //ADC1_SE10 -- PTB4
      case AD11:  //ADC1_SE11 -- PTB5
      case AD12:  //ADC1_SE12 -- PTB6
      case AD13:  //ADC1_SE13 -- PTB7
        PORTB->PCR[chn-6] =  PORT_PCR_MUX(0);
    2682:	f44f 4320 	mov.w	r3, #40960	; 0xa000
    2686:	f2c4 0304 	movt	r3, #16388	; 0x4004
    268a:	78fa      	ldrb	r2, [r7, #3]
    268c:	f1a2 0206 	sub.w	r2, r2, #6
    2690:	f04f 0100 	mov.w	r1, #0
    2694:	f843 1022 	str.w	r1, [r3, r2, lsl #2]
        break;
    2698:	e025      	b.n	26e6 <LPLD_ADC_Chn_Enable+0x2de>
      case AD14:  //ADC1_SE14 -- PTB10
      case AD15:  //ADC1_SE15 -- PTB11
        PORTB->PCR[chn-4] =  PORT_PCR_MUX(0);
    269a:	f44f 4320 	mov.w	r3, #40960	; 0xa000
    269e:	f2c4 0304 	movt	r3, #16388	; 0x4004
    26a2:	78fa      	ldrb	r2, [r7, #3]
    26a4:	f1a2 0204 	sub.w	r2, r2, #4
    26a8:	f04f 0100 	mov.w	r1, #0
    26ac:	f843 1022 	str.w	r1, [r3, r2, lsl #2]
        break;
    26b0:	e019      	b.n	26e6 <LPLD_ADC_Chn_Enable+0x2de>
      case AD16:   //ADC1_SE16
        break;
      case AD17:  //ADC1_SE17 -- PTA17
        PORTA->PCR[chn] =  PORT_PCR_MUX(0);
    26b2:	f44f 4310 	mov.w	r3, #36864	; 0x9000
    26b6:	f2c4 0304 	movt	r3, #16388	; 0x4004
    26ba:	78fa      	ldrb	r2, [r7, #3]
    26bc:	f04f 0100 	mov.w	r1, #0
    26c0:	f843 1022 	str.w	r1, [r3, r2, lsl #2]
        break;
    26c4:	bf00      	nop
    26c6:	e00e      	b.n	26e6 <LPLD_ADC_Chn_Enable+0x2de>
      case AD27:   //Bandgap (S.E)
      case AD29:   //VREFH (S.E)
      case AD30:   //VREFL
        break;
      default:
        return 0;  
    26c8:	f04f 0300 	mov.w	r3, #0
    26cc:	e00d      	b.n	26ea <LPLD_ADC_Chn_Enable+0x2e2>
    }
  }
  else
  {
    return 0;
    26ce:	f04f 0300 	mov.w	r3, #0
    26d2:	e00a      	b.n	26ea <LPLD_ADC_Chn_Enable+0x2e2>
    {
      case DAD0:   //ADC0_DP0 -- PGA0_DP
      case DAD1:   //ADC0_DP1 -- PGA2_DP
      case DAD2:   //PGA0_DP
      case DAD3:   //ADC0_DP3 -- PGA1_DP
        break;
    26d4:	bf00      	nop
    26d6:	e006      	b.n	26e6 <LPLD_ADC_Chn_Enable+0x2de>
      case AD4:   //ADC0_SE4b -- PTC2     
        if(mux == 1)    //b
          PORTC->PCR[2] =  PORT_PCR_MUX(0);
        break;
    26d8:	bf00      	nop
    26da:	e004      	b.n	26e6 <LPLD_ADC_Chn_Enable+0x2de>
      case AD5:   //ADC0_SE5b -- PTD1     
        if(mux == 1)    //b
          PORTD->PCR[1] =  PORT_PCR_MUX(0);
        break;
    26dc:	bf00      	nop
    26de:	e002      	b.n	26e6 <LPLD_ADC_Chn_Enable+0x2de>
      case AD6:   //ADC0_SE6b -- PTD5
      case AD7:   //ADC0_SE7b -- PTD6     
        if(mux == 1)    //b
          PORTD->PCR[chn-1] =  PORT_PCR_MUX(0);
        break;
    26e0:	bf00      	nop
    26e2:	e000      	b.n	26e6 <LPLD_ADC_Chn_Enable+0x2de>
    {
      case DAD0:   //ADC1_DP0 -- PGA1_DP
      case DAD1:   //ADC1_DP1 -- PGA3_DP
      case DAD2:   //PGA1_DP 
      case DAD3:   //ADC1_DP3 -- PGA0_DP
        break;
    26e4:	bf00      	nop
  else
  {
    return 0;
  }
  
  return 1;
    26e6:	f04f 0301 	mov.w	r3, #1
}
    26ea:	4618      	mov	r0, r3
    26ec:	f107 0714 	add.w	r7, r7, #20
    26f0:	46bd      	mov	sp, r7
    26f2:	bc80      	pop	{r7}
    26f4:	4770      	bx	lr
    26f6:	bf00      	nop

000026f8 <LPLD_ADC_Cal>:
 * 输出:
 *    0--配置错误
 *    1--配置成功
 */
static uint8 LPLD_ADC_Cal(ADC_MemMapPtr adcx)
{
    26f8:	b480      	push	{r7}
    26fa:	b085      	sub	sp, #20
    26fc:	af00      	add	r7, sp, #0
    26fe:	6078      	str	r0, [r7, #4]
  //32次硬件平均、ADCK不超过4MHz
  //参考高=Vdda、正常功耗模式
  //可忽略的配置：
  //输入通道、转换模式连续功能、比较功能、精度、差分单端
  //设置ADCCFG1寄存器
  adcx->CFG1  &= (~ADC_CFG1_ADLPC_MASK);          // 正常功耗配置
    2700:	687b      	ldr	r3, [r7, #4]
    2702:	689b      	ldr	r3, [r3, #8]
    2704:	f023 0280 	bic.w	r2, r3, #128	; 0x80
    2708:	687b      	ldr	r3, [r7, #4]
    270a:	609a      	str	r2, [r3, #8]
  adcx->CFG1  |=  ADC_CFG1_ADIV(ADIV_8)          // ADC输入时钟分频为8
    270c:	687b      	ldr	r3, [r7, #4]
    270e:	689b      	ldr	r3, [r3, #8]
    2710:	f043 0271 	orr.w	r2, r3, #113	; 0x71
    2714:	687b      	ldr	r3, [r7, #4]
    2716:	609a      	str	r2, [r3, #8]
                  | ADC_CFG1_ADLSMP_MASK           // 设置长时间采样模式
                  | ADC_CFG1_ADICLK(ADICLK_BUS_2); // ADC输入时钟源为 BusClk/2

  adcx->CFG2  &= (~ADC_CFG2_ADACKEN_MASK);
    2718:	687b      	ldr	r3, [r7, #4]
    271a:	68db      	ldr	r3, [r3, #12]
    271c:	f023 0208 	bic.w	r2, r3, #8
    2720:	687b      	ldr	r3, [r7, #4]
    2722:	60da      	str	r2, [r3, #12]
  adcx->CFG1  |=  ADC_CFG2_ADHSC_MASK         // 高速转换
    2724:	687b      	ldr	r3, [r7, #4]
    2726:	689b      	ldr	r3, [r3, #8]
    2728:	f043 0204 	orr.w	r2, r3, #4
    272c:	687b      	ldr	r3, [r7, #4]
    272e:	609a      	str	r2, [r3, #8]
                 | ADC_CFG2_ADLSTS(LSAMTIME_20EX); // 长采样时间时钟周期选择 额外20个时钟周期，共24个ADCK周期
                                               // 总采样周期见K60技术文档 page:840
  //用于设定阈值
  adcx->CV1  = 0x1234u ; 
    2730:	687b      	ldr	r3, [r7, #4]
    2732:	f241 2234 	movw	r2, #4660	; 0x1234
    2736:	619a      	str	r2, [r3, #24]
  adcx->CV2  = 0x5678u ;
    2738:	687b      	ldr	r3, [r7, #4]
    273a:	f245 6278 	movw	r2, #22136	; 0x5678
    273e:	61da      	str	r2, [r3, #28]
  
  adcx->SC2 &=  (~ADC_SC2_ADTRG_MASK);        //使能软件触发作为校准
    2740:	687b      	ldr	r3, [r7, #4]
    2742:	6a1b      	ldr	r3, [r3, #32]
    2744:	f023 0240 	bic.w	r2, r3, #64	; 0x40
    2748:	687b      	ldr	r3, [r7, #4]
    274a:	621a      	str	r2, [r3, #32]
  adcx->SC2 |=  ADC_SC2_REFSEL(REFSEL_EXT);  //选择外部参考源VREFH和VREFL
    274c:	687b      	ldr	r3, [r7, #4]
    274e:	6a1a      	ldr	r2, [r3, #32]
    2750:	687b      	ldr	r3, [r7, #4]
    2752:	621a      	str	r2, [r3, #32]
    
  adcx->SC3 &= ( ~ADC_SC3_ADCO_MASK & ~ADC_SC3_AVGS_MASK );  //设置单次转换，清除平均标志
    2754:	687b      	ldr	r3, [r7, #4]
    2756:	6a5b      	ldr	r3, [r3, #36]	; 0x24
    2758:	f023 020b 	bic.w	r2, r3, #11
    275c:	687b      	ldr	r3, [r7, #4]
    275e:	625a      	str	r2, [r3, #36]	; 0x24
  adcx->SC3 |= ( ADC_SC3_AVGE_MASK | ADC_SC3_AVGS(HW_32AVG) );//打开平均标志，设置到最大采样平准
    2760:	687b      	ldr	r3, [r7, #4]
    2762:	6a5b      	ldr	r3, [r3, #36]	; 0x24
    2764:	f043 0207 	orr.w	r2, r3, #7
    2768:	687b      	ldr	r3, [r7, #4]
    276a:	625a      	str	r2, [r3, #36]	; 0x24
  
  adcx->SC3 |= ADC_SC3_CAL_MASK ;                            //开始校准
    276c:	687b      	ldr	r3, [r7, #4]
    276e:	6a5b      	ldr	r3, [r3, #36]	; 0x24
    2770:	f043 0280 	orr.w	r2, r3, #128	; 0x80
    2774:	687b      	ldr	r3, [r7, #4]
    2776:	625a      	str	r2, [r3, #36]	; 0x24
  
  while((adcx->SC1[0] & ADC_SC1_COCO_MASK)== 0x00 );         //等待校准完成
    2778:	bf00      	nop
    277a:	687b      	ldr	r3, [r7, #4]
    277c:	681b      	ldr	r3, [r3, #0]
    277e:	f003 0380 	and.w	r3, r3, #128	; 0x80
    2782:	2b00      	cmp	r3, #0
    2784:	d0f9      	beq.n	277a <LPLD_ADC_Cal+0x82>
  	
  if ((adcx->SC3& ADC_SC3_CALF_MASK) == ADC_SC3_CALF_MASK )
    2786:	687b      	ldr	r3, [r7, #4]
    2788:	6a5b      	ldr	r3, [r3, #36]	; 0x24
    278a:	f003 0340 	and.w	r3, r3, #64	; 0x40
    278e:	2b00      	cmp	r3, #0
    2790:	d002      	beq.n	2798 <LPLD_ADC_Cal+0xa0>
  {  
   return 0;    //检查到校准错误，返回错误
    2792:	f04f 0300 	mov.w	r3, #0
    2796:	e069      	b.n	286c <LPLD_ADC_Cal+0x174>
  }
  // Calculate plus-side calibration
  cal_var  = 0x00;
    2798:	f04f 0300 	mov.w	r3, #0
    279c:	81fb      	strh	r3, [r7, #14]
  cal_var  = adcx->CLP0;       
    279e:	687b      	ldr	r3, [r7, #4]
    27a0:	6cdb      	ldr	r3, [r3, #76]	; 0x4c
    27a2:	81fb      	strh	r3, [r7, #14]
  cal_var += adcx->CLP1;      
    27a4:	687b      	ldr	r3, [r7, #4]
    27a6:	6c9b      	ldr	r3, [r3, #72]	; 0x48
    27a8:	b29a      	uxth	r2, r3
    27aa:	89fb      	ldrh	r3, [r7, #14]
    27ac:	18d3      	adds	r3, r2, r3
    27ae:	81fb      	strh	r3, [r7, #14]
  cal_var += adcx->CLP2;      
    27b0:	687b      	ldr	r3, [r7, #4]
    27b2:	6c5b      	ldr	r3, [r3, #68]	; 0x44
    27b4:	b29a      	uxth	r2, r3
    27b6:	89fb      	ldrh	r3, [r7, #14]
    27b8:	18d3      	adds	r3, r2, r3
    27ba:	81fb      	strh	r3, [r7, #14]
  cal_var += adcx->CLP3;      
    27bc:	687b      	ldr	r3, [r7, #4]
    27be:	6c1b      	ldr	r3, [r3, #64]	; 0x40
    27c0:	b29a      	uxth	r2, r3
    27c2:	89fb      	ldrh	r3, [r7, #14]
    27c4:	18d3      	adds	r3, r2, r3
    27c6:	81fb      	strh	r3, [r7, #14]
  cal_var += adcx->CLP4;      
    27c8:	687b      	ldr	r3, [r7, #4]
    27ca:	6bdb      	ldr	r3, [r3, #60]	; 0x3c
    27cc:	b29a      	uxth	r2, r3
    27ce:	89fb      	ldrh	r3, [r7, #14]
    27d0:	18d3      	adds	r3, r2, r3
    27d2:	81fb      	strh	r3, [r7, #14]
  cal_var += adcx->CLPS;      
    27d4:	687b      	ldr	r3, [r7, #4]
    27d6:	6b9b      	ldr	r3, [r3, #56]	; 0x38
    27d8:	b29a      	uxth	r2, r3
    27da:	89fb      	ldrh	r3, [r7, #14]
    27dc:	18d3      	adds	r3, r2, r3
    27de:	81fb      	strh	r3, [r7, #14]
  cal_var  = cal_var/2;
    27e0:	89fb      	ldrh	r3, [r7, #14]
    27e2:	ea4f 0353 	mov.w	r3, r3, lsr #1
    27e6:	81fb      	strh	r3, [r7, #14]
  cal_var |= 0x8000; // Set MSB
    27e8:	89fb      	ldrh	r3, [r7, #14]
    27ea:	ea6f 4343 	mvn.w	r3, r3, lsl #17
    27ee:	ea6f 4353 	mvn.w	r3, r3, lsr #17
    27f2:	81fb      	strh	r3, [r7, #14]
  
  adcx->PG = ADC_PG_PG(cal_var);
    27f4:	89fa      	ldrh	r2, [r7, #14]
    27f6:	687b      	ldr	r3, [r7, #4]
    27f8:	62da      	str	r2, [r3, #44]	; 0x2c

  // Calculate minus-side calibration
  cal_var = 0x00;
    27fa:	f04f 0300 	mov.w	r3, #0
    27fe:	81fb      	strh	r3, [r7, #14]
  cal_var =  adcx->CLM0; 
    2800:	687b      	ldr	r3, [r7, #4]
    2802:	6edb      	ldr	r3, [r3, #108]	; 0x6c
    2804:	81fb      	strh	r3, [r7, #14]
  cal_var += adcx->CLM1;
    2806:	687b      	ldr	r3, [r7, #4]
    2808:	6e9b      	ldr	r3, [r3, #104]	; 0x68
    280a:	b29a      	uxth	r2, r3
    280c:	89fb      	ldrh	r3, [r7, #14]
    280e:	18d3      	adds	r3, r2, r3
    2810:	81fb      	strh	r3, [r7, #14]
  cal_var += adcx->CLM2;
    2812:	687b      	ldr	r3, [r7, #4]
    2814:	6e5b      	ldr	r3, [r3, #100]	; 0x64
    2816:	b29a      	uxth	r2, r3
    2818:	89fb      	ldrh	r3, [r7, #14]
    281a:	18d3      	adds	r3, r2, r3
    281c:	81fb      	strh	r3, [r7, #14]
  cal_var += adcx->CLM3;
    281e:	687b      	ldr	r3, [r7, #4]
    2820:	6e1b      	ldr	r3, [r3, #96]	; 0x60
    2822:	b29a      	uxth	r2, r3
    2824:	89fb      	ldrh	r3, [r7, #14]
    2826:	18d3      	adds	r3, r2, r3
    2828:	81fb      	strh	r3, [r7, #14]
  cal_var += adcx->CLM4;
    282a:	687b      	ldr	r3, [r7, #4]
    282c:	6ddb      	ldr	r3, [r3, #92]	; 0x5c
    282e:	b29a      	uxth	r2, r3
    2830:	89fb      	ldrh	r3, [r7, #14]
    2832:	18d3      	adds	r3, r2, r3
    2834:	81fb      	strh	r3, [r7, #14]
  cal_var += adcx->CLMS;
    2836:	687b      	ldr	r3, [r7, #4]
    2838:	6d9b      	ldr	r3, [r3, #88]	; 0x58
    283a:	b29a      	uxth	r2, r3
    283c:	89fb      	ldrh	r3, [r7, #14]
    283e:	18d3      	adds	r3, r2, r3
    2840:	81fb      	strh	r3, [r7, #14]
  cal_var = cal_var/2;
    2842:	89fb      	ldrh	r3, [r7, #14]
    2844:	ea4f 0353 	mov.w	r3, r3, lsr #1
    2848:	81fb      	strh	r3, [r7, #14]
  cal_var |= 0x8000; // Set MSB
    284a:	89fb      	ldrh	r3, [r7, #14]
    284c:	ea6f 4343 	mvn.w	r3, r3, lsl #17
    2850:	ea6f 4353 	mvn.w	r3, r3, lsr #17
    2854:	81fb      	strh	r3, [r7, #14]

  adcx->MG   = ADC_MG_MG(cal_var); 
    2856:	89fa      	ldrh	r2, [r7, #14]
    2858:	687b      	ldr	r3, [r7, #4]
    285a:	631a      	str	r2, [r3, #48]	; 0x30
  adcx->SC3 &= ~ADC_SC3_CAL_MASK ; //清除校验标志
    285c:	687b      	ldr	r3, [r7, #4]
    285e:	6a5b      	ldr	r3, [r3, #36]	; 0x24
    2860:	f023 0280 	bic.w	r2, r3, #128	; 0x80
    2864:	687b      	ldr	r3, [r7, #4]
    2866:	625a      	str	r2, [r3, #36]	; 0x24
  
  return 1;
    2868:	f04f 0301 	mov.w	r3, #1
}
    286c:	4618      	mov	r0, r3
    286e:	f107 0714 	add.w	r7, r7, #20
    2872:	46bd      	mov	sp, r7
    2874:	bc80      	pop	{r7}
    2876:	4770      	bx	lr

00002878 <ADC0_IRQHandler>:
 * 与启动文件startup_K60.s中的中断向量表关联
 * 用户无需修改，程序自动进入对应通道中断函数
 */

void ADC0_IRQHandler(void)
{
    2878:	b580      	push	{r7, lr}
    287a:	af00      	add	r7, sp, #0
    ADC_ISR[0]();
    287c:	f241 53fc 	movw	r3, #5628	; 0x15fc
    2880:	f6c1 73ff 	movt	r3, #8191	; 0x1fff
    2884:	681b      	ldr	r3, [r3, #0]
    2886:	4798      	blx	r3
}
    2888:	bd80      	pop	{r7, pc}
    288a:	bf00      	nop

0000288c <ADC1_IRQHandler>:

void ADC1_IRQHandler(void)
{
    288c:	b580      	push	{r7, lr}
    288e:	af00      	add	r7, sp, #0
    ADC_ISR[1]();
    2890:	f241 53fc 	movw	r3, #5628	; 0x15fc
    2894:	f6c1 73ff 	movt	r3, #8191	; 0x1fff
    2898:	685b      	ldr	r3, [r3, #4]
    289a:	4798      	blx	r3
}
    289c:	bd80      	pop	{r7, pc}
    289e:	bf00      	nop

000028a0 <LPLD_DMA_Init>:
 * :
 *    0--ô
 *    1--óɹ
 */
uint8 LPLD_DMA_Init(DMA_InitTypeDef dma_init_struct)
{
    28a0:	b084      	sub	sp, #16
    28a2:	b480      	push	{r7}
    28a4:	b08b      	sub	sp, #44	; 0x2c
    28a6:	af00      	add	r7, sp, #0
    28a8:	f107 0c30 	add.w	ip, r7, #48	; 0x30
    28ac:	e88c 000f 	stmia.w	ip, {r0, r1, r2, r3}
  uint8 chx = dma_init_struct.DMA_CHx;
    28b0:	f897 3030 	ldrb.w	r3, [r7, #48]	; 0x30
    28b4:	f887 3027 	strb.w	r3, [r7, #39]	; 0x27
  uint8 req = dma_init_struct.DMA_Req;
    28b8:	f897 3031 	ldrb.w	r3, [r7, #49]	; 0x31
    28bc:	f887 3026 	strb.w	r3, [r7, #38]	; 0x26
  boolean periodic_trigg = dma_init_struct.DMA_PeriodicTriggerEnable;
    28c0:	f897 3032 	ldrb.w	r3, [r7, #50]	; 0x32
    28c4:	f887 3025 	strb.w	r3, [r7, #37]	; 0x25
  uint16 major_cnt = dma_init_struct.DMA_MajorLoopCnt;
    28c8:	8ebb      	ldrh	r3, [r7, #52]	; 0x34
    28ca:	847b      	strh	r3, [r7, #34]	; 0x22
  uint32 minor_cnt = dma_init_struct.DMA_MinorByteCnt;
    28cc:	6bbb      	ldr	r3, [r7, #56]	; 0x38
    28ce:	61fb      	str	r3, [r7, #28]
  uint32 src_addr = dma_init_struct.DMA_SourceAddr;
    28d0:	6bfb      	ldr	r3, [r7, #60]	; 0x3c
    28d2:	61bb      	str	r3, [r7, #24]
  uint8 src_dsize = dma_init_struct.DMA_SourceDataSize;
    28d4:	f897 3040 	ldrb.w	r3, [r7, #64]	; 0x40
    28d8:	75fb      	strb	r3, [r7, #23]
  int16 src_addroffset = dma_init_struct.DMA_SourceAddrOffset;
    28da:	f8b7 3042 	ldrh.w	r3, [r7, #66]	; 0x42
    28de:	82bb      	strh	r3, [r7, #20]
  int32 src_lastadj = dma_init_struct.DMA_LastSourceAddrAdj;
    28e0:	6c7b      	ldr	r3, [r7, #68]	; 0x44
    28e2:	613b      	str	r3, [r7, #16]
  uint32 dst_addr = dma_init_struct.DMA_DestAddr;
    28e4:	6cbb      	ldr	r3, [r7, #72]	; 0x48
    28e6:	60fb      	str	r3, [r7, #12]
  uint8 dst_dsize = dma_init_struct.DMA_DestDataSize;
    28e8:	f897 304c 	ldrb.w	r3, [r7, #76]	; 0x4c
    28ec:	72fb      	strb	r3, [r7, #11]
  int16 dst_addroffset = dma_init_struct.DMA_DestAddrOffset;
    28ee:	f8b7 304e 	ldrh.w	r3, [r7, #78]	; 0x4e
    28f2:	813b      	strh	r3, [r7, #8]
  int32 dst_lastadj = dma_init_struct.DMA_LastDestAddrAdj;
    28f4:	6d3b      	ldr	r3, [r7, #80]	; 0x50
    28f6:	607b      	str	r3, [r7, #4]
  boolean auto_disable = dma_init_struct.DMA_AutoDisableReq;
    28f8:	f897 3054 	ldrb.w	r3, [r7, #84]	; 0x54
    28fc:	70fb      	strb	r3, [r7, #3]
  //ASSERT( src_addr != NULL );      //Դַж
  //ASSERT( (src_dsize <= DMA_SRC_32BIT)||(src_dsize == DMA_SRC_16BYTE) );     //ԴݴСж
  //ASSERT( dst_addr != NULL );      //Ŀĵַж
  //ASSERT( (dst_dsize <= DMA_DST_32BIT)||(dst_dsize == DMA_DST_16BYTE) );     //ĿݴСж
 
  if (chx > DMA_CH15)
    28fe:	f897 3027 	ldrb.w	r3, [r7, #39]	; 0x27
    2902:	2b0f      	cmp	r3, #15
    2904:	d902      	bls.n	290c <LPLD_DMA_Init+0x6c>
    return 0;
    2906:	f04f 0300 	mov.w	r3, #0
    290a:	e220      	b.n	2d4e <LPLD_DMA_Init+0x4ae>
  if (req > DMA_MUX_63)
    290c:	f897 3026 	ldrb.w	r3, [r7, #38]	; 0x26
    2910:	2b3f      	cmp	r3, #63	; 0x3f
    2912:	d902      	bls.n	291a <LPLD_DMA_Init+0x7a>
    return 0;
    2914:	f04f 0300 	mov.w	r3, #0
    2918:	e219      	b.n	2d4e <LPLD_DMA_Init+0x4ae>
  if (major_cnt > 0x7FFF)
    291a:	8c7b      	ldrh	r3, [r7, #34]	; 0x22
    291c:	b21b      	sxth	r3, r3
    291e:	2b00      	cmp	r3, #0
    2920:	da02      	bge.n	2928 <LPLD_DMA_Init+0x88>
    return 0;
    2922:	f04f 0300 	mov.w	r3, #0
    2926:	e212      	b.n	2d4e <LPLD_DMA_Init+0x4ae>
  if (src_addr == 0)
    2928:	69bb      	ldr	r3, [r7, #24]
    292a:	2b00      	cmp	r3, #0
    292c:	d102      	bne.n	2934 <LPLD_DMA_Init+0x94>
    return 0;
    292e:	f04f 0300 	mov.w	r3, #0
    2932:	e20c      	b.n	2d4e <LPLD_DMA_Init+0x4ae>
  if ((src_dsize > DMA_SRC_32BIT) || (src_dsize != DMA_SRC_16BYTE))
    2934:	7dfb      	ldrb	r3, [r7, #23]
    2936:	2b02      	cmp	r3, #2
    2938:	d802      	bhi.n	2940 <LPLD_DMA_Init+0xa0>
    293a:	7dfb      	ldrb	r3, [r7, #23]
    293c:	2b04      	cmp	r3, #4
    293e:	d002      	beq.n	2946 <LPLD_DMA_Init+0xa6>
    return 0;
    2940:	f04f 0300 	mov.w	r3, #0
    2944:	e203      	b.n	2d4e <LPLD_DMA_Init+0x4ae>
  if (dst_addr == 0)
    2946:	68fb      	ldr	r3, [r7, #12]
    2948:	2b00      	cmp	r3, #0
    294a:	d102      	bne.n	2952 <LPLD_DMA_Init+0xb2>
    return 0;
    294c:	f04f 0300 	mov.w	r3, #0
    2950:	e1fd      	b.n	2d4e <LPLD_DMA_Init+0x4ae>
  if ((dst_dsize > DMA_DST_32BIT) || (dst_dsize != DMA_SRC_16BYTE))
    2952:	7afb      	ldrb	r3, [r7, #11]
    2954:	2b02      	cmp	r3, #2
    2956:	d802      	bhi.n	295e <LPLD_DMA_Init+0xbe>
    2958:	7afb      	ldrb	r3, [r7, #11]
    295a:	2b04      	cmp	r3, #4
    295c:	d002      	beq.n	2964 <LPLD_DMA_Init+0xc4>
    return 0;
    295e:	f04f 0300 	mov.w	r3, #0
    2962:	e1f4      	b.n	2d4e <LPLD_DMA_Init+0x4ae>

  SIM_SCGC7 |= SIM_SCGC7_DMA_MASK;     //DMAģʱ
    2964:	f44f 43e0 	mov.w	r3, #28672	; 0x7000
    2968:	f2c4 0304 	movt	r3, #16388	; 0x4004
    296c:	f44f 42e0 	mov.w	r2, #28672	; 0x7000
    2970:	f2c4 0204 	movt	r2, #16388	; 0x4004
    2974:	f502 5282 	add.w	r2, r2, #4160	; 0x1040
    2978:	6812      	ldr	r2, [r2, #0]
    297a:	f042 0202 	orr.w	r2, r2, #2
    297e:	f503 5382 	add.w	r3, r3, #4160	; 0x1040
    2982:	601a      	str	r2, [r3, #0]
  SIM_SCGC6 |= SIM_SCGC6_DMAMUX0_MASK;  //DMAͨ·ʱ   
    2984:	f44f 43e0 	mov.w	r3, #28672	; 0x7000
    2988:	f2c4 0304 	movt	r3, #16388	; 0x4004
    298c:	f44f 42e0 	mov.w	r2, #28672	; 0x7000
    2990:	f2c4 0204 	movt	r2, #16388	; 0x4004
    2994:	f502 5281 	add.w	r2, r2, #4128	; 0x1020
    2998:	f102 021c 	add.w	r2, r2, #28
    299c:	6812      	ldr	r2, [r2, #0]
    299e:	f042 0202 	orr.w	r2, r2, #2
    29a2:	f503 5381 	add.w	r3, r3, #4128	; 0x1020
    29a6:	f103 031c 	add.w	r3, r3, #28
    29aa:	601a      	str	r2, [r3, #0]
  
  //رͨxӲDMA 
  DMA0->ERQ &= ~(1<<chx);
    29ac:	f44f 4300 	mov.w	r3, #32768	; 0x8000
    29b0:	f2c4 0300 	movt	r3, #16384	; 0x4000
    29b4:	f44f 4200 	mov.w	r2, #32768	; 0x8000
    29b8:	f2c4 0200 	movt	r2, #16384	; 0x4000
    29bc:	68d1      	ldr	r1, [r2, #12]
    29be:	f897 2027 	ldrb.w	r2, [r7, #39]	; 0x27
    29c2:	f04f 0001 	mov.w	r0, #1
    29c6:	fa00 f202 	lsl.w	r2, r0, r2
    29ca:	ea6f 0202 	mvn.w	r2, r2
    29ce:	400a      	ands	r2, r1
    29d0:	60da      	str	r2, [r3, #12]
  
  //ѡ ͨx DMAԴ
  DMAMUX->CHCFG[chx] = DMAMUX_CHCFG_SOURCE(req);
    29d2:	f44f 5380 	mov.w	r3, #4096	; 0x1000
    29d6:	f2c4 0302 	movt	r3, #16386	; 0x4002
    29da:	f897 2027 	ldrb.w	r2, [r7, #39]	; 0x27
    29de:	f897 1026 	ldrb.w	r1, [r7, #38]	; 0x26
    29e2:	f001 013f 	and.w	r1, r1, #63	; 0x3f
    29e6:	b2c9      	uxtb	r1, r1
    29e8:	5499      	strb	r1, [r3, r2]
  //Ƿʹڴ
  if(periodic_trigg == TRUE)
    29ea:	f897 3025 	ldrb.w	r3, [r7, #37]	; 0x25
    29ee:	2b01      	cmp	r3, #1
    29f0:	d112      	bne.n	2a18 <LPLD_DMA_Init+0x178>
  {
    DMAMUX->CHCFG[chx] |= DMAMUX_CHCFG_TRIG_MASK;
    29f2:	f44f 5380 	mov.w	r3, #4096	; 0x1000
    29f6:	f2c4 0302 	movt	r3, #16386	; 0x4002
    29fa:	f897 1027 	ldrb.w	r1, [r7, #39]	; 0x27
    29fe:	f44f 5280 	mov.w	r2, #4096	; 0x1000
    2a02:	f2c4 0202 	movt	r2, #16386	; 0x4002
    2a06:	f897 0027 	ldrb.w	r0, [r7, #39]	; 0x27
    2a0a:	5c12      	ldrb	r2, [r2, r0]
    2a0c:	b2d2      	uxtb	r2, r2
    2a0e:	f042 0240 	orr.w	r2, r2, #64	; 0x40
    2a12:	b2d2      	uxtb	r2, r2
    2a14:	545a      	strb	r2, [r3, r1]
    2a16:	e011      	b.n	2a3c <LPLD_DMA_Init+0x19c>
  }
  else
  {
    DMAMUX->CHCFG[chx] &= ~(DMAMUX_CHCFG_TRIG_MASK);
    2a18:	f44f 5380 	mov.w	r3, #4096	; 0x1000
    2a1c:	f2c4 0302 	movt	r3, #16386	; 0x4002
    2a20:	f897 1027 	ldrb.w	r1, [r7, #39]	; 0x27
    2a24:	f44f 5280 	mov.w	r2, #4096	; 0x1000
    2a28:	f2c4 0202 	movt	r2, #16386	; 0x4002
    2a2c:	f897 0027 	ldrb.w	r0, [r7, #39]	; 0x27
    2a30:	5c12      	ldrb	r2, [r2, r0]
    2a32:	b2d2      	uxtb	r2, r2
    2a34:	f022 0240 	bic.w	r2, r2, #64	; 0x40
    2a38:	b2d2      	uxtb	r2, r2
    2a3a:	545a      	strb	r2, [r3, r1]
  }
  
  
  //Դַ   
  DMA0->TCD[chx].SADDR = DMA_SADDR_SADDR(src_addr);
    2a3c:	f44f 4300 	mov.w	r3, #32768	; 0x8000
    2a40:	f2c4 0300 	movt	r3, #16384	; 0x4000
    2a44:	f897 2027 	ldrb.w	r2, [r7, #39]	; 0x27
    2a48:	f102 0280 	add.w	r2, r2, #128	; 0x80
    2a4c:	ea4f 1242 	mov.w	r2, r2, lsl #5
    2a50:	189b      	adds	r3, r3, r2
    2a52:	69ba      	ldr	r2, [r7, #24]
    2a54:	601a      	str	r2, [r3, #0]
  //ִԴַĲ֮ԴַĻ/ƫƵַ
  DMA0->TCD[chx].SOFF = DMA_SOFF_SOFF(src_addroffset);
    2a56:	f44f 4300 	mov.w	r3, #32768	; 0x8000
    2a5a:	f2c4 0300 	movt	r3, #16384	; 0x4000
    2a5e:	f897 1027 	ldrb.w	r1, [r7, #39]	; 0x27
    2a62:	8aba      	ldrh	r2, [r7, #20]
    2a64:	f101 0180 	add.w	r1, r1, #128	; 0x80
    2a68:	ea4f 1141 	mov.w	r1, r1, lsl #5
    2a6c:	185b      	adds	r3, r3, r1
    2a6e:	809a      	strh	r2, [r3, #4]
  //ԴַĴС
  DMA0->TCD[chx].ATTR = 0 | DMA_ATTR_SSIZE(src_dsize);
    2a70:	f44f 4300 	mov.w	r3, #32768	; 0x8000
    2a74:	f2c4 0300 	movt	r3, #16384	; 0x4000
    2a78:	f897 1027 	ldrb.w	r1, [r7, #39]	; 0x27
    2a7c:	7dfa      	ldrb	r2, [r7, #23]
    2a7e:	b292      	uxth	r2, r2
    2a80:	ea4f 2202 	mov.w	r2, r2, lsl #8
    2a84:	b292      	uxth	r2, r2
    2a86:	f402 62e0 	and.w	r2, r2, #1792	; 0x700
    2a8a:	b292      	uxth	r2, r2
    2a8c:	f101 0180 	add.w	r1, r1, #128	; 0x80
    2a90:	ea4f 1141 	mov.w	r1, r1, lsl #5
    2a94:	185b      	adds	r3, r3, r1
    2a96:	80da      	strh	r2, [r3, #6]
  //ļmajor iteration countﵽµԴַ
  DMA0->TCD[chx].SLAST = DMA_SLAST_SLAST(src_lastadj);
    2a98:	f44f 4300 	mov.w	r3, #32768	; 0x8000
    2a9c:	f2c4 0300 	movt	r3, #16384	; 0x4000
    2aa0:	f897 1027 	ldrb.w	r1, [r7, #39]	; 0x27
    2aa4:	693a      	ldr	r2, [r7, #16]
    2aa6:	ea4f 1141 	mov.w	r1, r1, lsl #5
    2aaa:	185b      	adds	r3, r3, r1
    2aac:	f503 5380 	add.w	r3, r3, #4096	; 0x1000
    2ab0:	f103 0308 	add.w	r3, r3, #8
    2ab4:	605a      	str	r2, [r3, #4]
  
  //Ŀĵַ 
  DMA0->TCD[chx].DADDR = DMA_DADDR_DADDR(dst_addr);
    2ab6:	f44f 4300 	mov.w	r3, #32768	; 0x8000
    2aba:	f2c4 0300 	movt	r3, #16384	; 0x4000
    2abe:	f897 2027 	ldrb.w	r2, [r7, #39]	; 0x27
    2ac2:	ea4f 1242 	mov.w	r2, r2, lsl #5
    2ac6:	189b      	adds	r3, r3, r2
    2ac8:	f503 5380 	add.w	r3, r3, #4096	; 0x1000
    2acc:	f103 0310 	add.w	r3, r3, #16
    2ad0:	68fa      	ldr	r2, [r7, #12]
    2ad2:	601a      	str	r2, [r3, #0]
  //ִĿĵַĲ֮ĿĵַĻ/ƫƵַ
  DMA0->TCD[chx].DOFF = DMA_DOFF_DOFF(dst_addroffset);
    2ad4:	f44f 4300 	mov.w	r3, #32768	; 0x8000
    2ad8:	f2c4 0300 	movt	r3, #16384	; 0x4000
    2adc:	f897 1027 	ldrb.w	r1, [r7, #39]	; 0x27
    2ae0:	893a      	ldrh	r2, [r7, #8]
    2ae2:	ea4f 1141 	mov.w	r1, r1, lsl #5
    2ae6:	185b      	adds	r3, r3, r1
    2ae8:	f503 5380 	add.w	r3, r3, #4096	; 0x1000
    2aec:	f103 0310 	add.w	r3, r3, #16
    2af0:	809a      	strh	r2, [r3, #4]
  //ĿĵַĴ
  DMA0->TCD[chx].ATTR |= DMA_ATTR_DSIZE(dst_dsize);
    2af2:	f44f 4300 	mov.w	r3, #32768	; 0x8000
    2af6:	f2c4 0300 	movt	r3, #16384	; 0x4000
    2afa:	f897 1027 	ldrb.w	r1, [r7, #39]	; 0x27
    2afe:	f44f 4200 	mov.w	r2, #32768	; 0x8000
    2b02:	f2c4 0200 	movt	r2, #16384	; 0x4000
    2b06:	f897 0027 	ldrb.w	r0, [r7, #39]	; 0x27
    2b0a:	f100 0080 	add.w	r0, r0, #128	; 0x80
    2b0e:	ea4f 1040 	mov.w	r0, r0, lsl #5
    2b12:	1812      	adds	r2, r2, r0
    2b14:	88d2      	ldrh	r2, [r2, #6]
    2b16:	b290      	uxth	r0, r2
    2b18:	7afa      	ldrb	r2, [r7, #11]
    2b1a:	b292      	uxth	r2, r2
    2b1c:	f002 0207 	and.w	r2, r2, #7
    2b20:	b292      	uxth	r2, r2
    2b22:	4302      	orrs	r2, r0
    2b24:	b292      	uxth	r2, r2
    2b26:	f101 0180 	add.w	r1, r1, #128	; 0x80
    2b2a:	ea4f 1141 	mov.w	r1, r1, lsl #5
    2b2e:	185b      	adds	r3, r3, r1
    2b30:	80da      	strh	r2, [r3, #6]
  //ļmajor iteration countﵽµĿĵַ
  DMA0->TCD[chx].DLAST_SGA = DMA_DLAST_SGA_DLASTSGA(dst_lastadj);
    2b32:	f44f 4300 	mov.w	r3, #32768	; 0x8000
    2b36:	f2c4 0300 	movt	r3, #16384	; 0x4000
    2b3a:	f897 1027 	ldrb.w	r1, [r7, #39]	; 0x27
    2b3e:	687a      	ldr	r2, [r7, #4]
    2b40:	ea4f 1141 	mov.w	r1, r1, lsl #5
    2b44:	185b      	adds	r3, r3, r1
    2b46:	f503 5380 	add.w	r3, r3, #4096	; 0x1000
    2b4a:	f103 0318 	add.w	r3, r3, #24
    2b4e:	601a      	str	r2, [r3, #0]
  //ĬΪͨӹܣӴ˹
  if( 1 == 1)
  {
    //===============ȣѭ====================================
    //ѭ current major loop count
    DMA0->TCD[chx].CITER_ELINKNO = DMA_CITER_ELINKNO_CITER(major_cnt);
    2b50:	f44f 4300 	mov.w	r3, #32768	; 0x8000
    2b54:	f2c4 0300 	movt	r3, #16384	; 0x4000
    2b58:	f897 1027 	ldrb.w	r1, [r7, #39]	; 0x27
    2b5c:	8c7a      	ldrh	r2, [r7, #34]	; 0x22
    2b5e:	ea4f 4242 	mov.w	r2, r2, lsl #17
    2b62:	ea4f 4252 	mov.w	r2, r2, lsr #17
    2b66:	b292      	uxth	r2, r2
    2b68:	ea4f 1141 	mov.w	r1, r1, lsl #5
    2b6c:	185b      	adds	r3, r3, r1
    2b6e:	f503 5380 	add.w	r3, r3, #4096	; 0x1000
    2b72:	f103 0310 	add.w	r3, r3, #16
    2b76:	80da      	strh	r2, [r3, #6]
    //ʼѭѭΪʱ򣬽װʼѭֵ
    DMA0->TCD[chx].BITER_ELINKNO = DMA_CITER_ELINKNO_CITER(major_cnt);
    2b78:	f44f 4300 	mov.w	r3, #32768	; 0x8000
    2b7c:	f2c4 0300 	movt	r3, #16384	; 0x4000
    2b80:	f897 1027 	ldrb.w	r1, [r7, #39]	; 0x27
    2b84:	8c7a      	ldrh	r2, [r7, #34]	; 0x22
    2b86:	ea4f 4242 	mov.w	r2, r2, lsl #17
    2b8a:	ea4f 4252 	mov.w	r2, r2, lsr #17
    2b8e:	b292      	uxth	r2, r2
    2b90:	ea4f 1141 	mov.w	r1, r1, lsl #5
    2b94:	185b      	adds	r3, r3, r1
    2b96:	f503 5380 	add.w	r3, r3, #4096	; 0x1000
    2b9a:	f103 0318 	add.w	r3, r3, #24
    2b9e:	80da      	strh	r2, [r3, #6]
  
  //ĬΪôѭַƫƹܣӴ˹
  if( 1 == 1)
  {
    //ѭһδֽڵĸ
    DMA0->TCD[chx].NBYTES_MLNO = DMA_NBYTES_MLNO_NBYTES(minor_cnt);
    2ba0:	f44f 4300 	mov.w	r3, #32768	; 0x8000
    2ba4:	f2c4 0300 	movt	r3, #16384	; 0x4000
    2ba8:	f897 2027 	ldrb.w	r2, [r7, #39]	; 0x27
    2bac:	ea4f 1242 	mov.w	r2, r2, lsl #5
    2bb0:	189b      	adds	r3, r3, r2
    2bb2:	f503 5380 	add.w	r3, r3, #4096	; 0x1000
    2bb6:	f103 0308 	add.w	r3, r3, #8
    2bba:	69fa      	ldr	r2, [r7, #28]
    2bbc:	601a      	str	r2, [r3, #0]
  }
  
  //TCDƼĴ     
  DMA0->TCD[chx].CSR = 0;
    2bbe:	f44f 4300 	mov.w	r3, #32768	; 0x8000
    2bc2:	f2c4 0300 	movt	r3, #16384	; 0x4000
    2bc6:	f897 2027 	ldrb.w	r2, [r7, #39]	; 0x27
    2bca:	ea4f 1242 	mov.w	r2, r2, lsl #5
    2bce:	189b      	adds	r3, r3, r2
    2bd0:	f503 5380 	add.w	r3, r3, #4096	; 0x1000
    2bd4:	f103 0318 	add.w	r3, r3, #24
    2bd8:	f04f 0200 	mov.w	r2, #0
    2bdc:	809a      	strh	r2, [r3, #4]
  
  //eDMAж
  if((dma_init_struct.DMA_Isr != NULL) && 
    2bde:	6dbb      	ldr	r3, [r7, #88]	; 0x58
    2be0:	2b00      	cmp	r3, #0
    2be2:	d02c      	beq.n	2c3e <LPLD_DMA_Init+0x39e>
     (dma_init_struct.DMA_MajorCompleteIntEnable == TRUE))
    2be4:	f897 3055 	ldrb.w	r3, [r7, #85]	; 0x55
  
  //TCDƼĴ     
  DMA0->TCD[chx].CSR = 0;
  
  //eDMAж
  if((dma_init_struct.DMA_Isr != NULL) && 
    2be8:	2b01      	cmp	r3, #1
    2bea:	d128      	bne.n	2c3e <LPLD_DMA_Init+0x39e>
     (dma_init_struct.DMA_MajorCompleteIntEnable == TRUE))
  {

       DMA0->TCD[chx].CSR |= DMA_CSR_INTMAJOR_MASK; //ʹDMA ѭ ж
    2bec:	f44f 4300 	mov.w	r3, #32768	; 0x8000
    2bf0:	f2c4 0300 	movt	r3, #16384	; 0x4000
    2bf4:	f897 1027 	ldrb.w	r1, [r7, #39]	; 0x27
    2bf8:	f44f 4200 	mov.w	r2, #32768	; 0x8000
    2bfc:	f2c4 0200 	movt	r2, #16384	; 0x4000
    2c00:	f897 0027 	ldrb.w	r0, [r7, #39]	; 0x27
    2c04:	ea4f 1040 	mov.w	r0, r0, lsl #5
    2c08:	1812      	adds	r2, r2, r0
    2c0a:	f502 5280 	add.w	r2, r2, #4096	; 0x1000
    2c0e:	f102 0218 	add.w	r2, r2, #24
    2c12:	8892      	ldrh	r2, [r2, #4]
    2c14:	b292      	uxth	r2, r2
    2c16:	f042 0202 	orr.w	r2, r2, #2
    2c1a:	b292      	uxth	r2, r2
    2c1c:	ea4f 1141 	mov.w	r1, r1, lsl #5
    2c20:	185b      	adds	r3, r3, r1
    2c22:	f503 5380 	add.w	r3, r3, #4096	; 0x1000
    2c26:	f103 0318 	add.w	r3, r3, #24
    2c2a:	809a      	strh	r2, [r3, #4]
       DMA_ISR[chx] = dma_init_struct.DMA_Isr;
    2c2c:	f897 2027 	ldrb.w	r2, [r7, #39]	; 0x27
    2c30:	6db9      	ldr	r1, [r7, #88]	; 0x58
    2c32:	f241 6304 	movw	r3, #5636	; 0x1604
    2c36:	f6c1 73ff 	movt	r3, #8191	; 0x1fff
    2c3a:	f843 1022 	str.w	r1, [r3, r2, lsl #2]
  }
  if((dma_init_struct.DMA_Isr != NULL) && 
    2c3e:	6dbb      	ldr	r3, [r7, #88]	; 0x58
    2c40:	2b00      	cmp	r3, #0
    2c42:	d02c      	beq.n	2c9e <LPLD_DMA_Init+0x3fe>
     (dma_init_struct.DMA_MajorHalfCompleteIntEnable == TRUE))
    2c44:	f897 3056 	ldrb.w	r3, [r7, #86]	; 0x56
  {

       DMA0->TCD[chx].CSR |= DMA_CSR_INTMAJOR_MASK; //ʹDMA ѭ ж
       DMA_ISR[chx] = dma_init_struct.DMA_Isr;
  }
  if((dma_init_struct.DMA_Isr != NULL) && 
    2c48:	2b01      	cmp	r3, #1
    2c4a:	d128      	bne.n	2c9e <LPLD_DMA_Init+0x3fe>
     (dma_init_struct.DMA_MajorHalfCompleteIntEnable == TRUE))
  {

       DMA0->TCD[chx].CSR |= DMA_CSR_INTHALF_MASK; //ʹDMA ѭһ ж
    2c4c:	f44f 4300 	mov.w	r3, #32768	; 0x8000
    2c50:	f2c4 0300 	movt	r3, #16384	; 0x4000
    2c54:	f897 1027 	ldrb.w	r1, [r7, #39]	; 0x27
    2c58:	f44f 4200 	mov.w	r2, #32768	; 0x8000
    2c5c:	f2c4 0200 	movt	r2, #16384	; 0x4000
    2c60:	f897 0027 	ldrb.w	r0, [r7, #39]	; 0x27
    2c64:	ea4f 1040 	mov.w	r0, r0, lsl #5
    2c68:	1812      	adds	r2, r2, r0
    2c6a:	f502 5280 	add.w	r2, r2, #4096	; 0x1000
    2c6e:	f102 0218 	add.w	r2, r2, #24
    2c72:	8892      	ldrh	r2, [r2, #4]
    2c74:	b292      	uxth	r2, r2
    2c76:	f042 0204 	orr.w	r2, r2, #4
    2c7a:	b292      	uxth	r2, r2
    2c7c:	ea4f 1141 	mov.w	r1, r1, lsl #5
    2c80:	185b      	adds	r3, r3, r1
    2c82:	f503 5380 	add.w	r3, r3, #4096	; 0x1000
    2c86:	f103 0318 	add.w	r3, r3, #24
    2c8a:	809a      	strh	r2, [r3, #4]
       DMA_ISR[chx] = dma_init_struct.DMA_Isr;
    2c8c:	f897 2027 	ldrb.w	r2, [r7, #39]	; 0x27
    2c90:	6db9      	ldr	r1, [r7, #88]	; 0x58
    2c92:	f241 6304 	movw	r3, #5636	; 0x1604
    2c96:	f6c1 73ff 	movt	r3, #8191	; 0x1fff
    2c9a:	f843 1022 	str.w	r1, [r3, r2, lsl #2]
  }
    
  if(auto_disable == TRUE)
    2c9e:	78fb      	ldrb	r3, [r7, #3]
    2ca0:	2b01      	cmp	r3, #1
    2ca2:	d120      	bne.n	2ce6 <LPLD_DMA_Init+0x446>
  {
     DMA0->TCD[chx].CSR |= DMA_CSR_DREQ_MASK; //ѭԶرDMA 
    2ca4:	f44f 4300 	mov.w	r3, #32768	; 0x8000
    2ca8:	f2c4 0300 	movt	r3, #16384	; 0x4000
    2cac:	f897 1027 	ldrb.w	r1, [r7, #39]	; 0x27
    2cb0:	f44f 4200 	mov.w	r2, #32768	; 0x8000
    2cb4:	f2c4 0200 	movt	r2, #16384	; 0x4000
    2cb8:	f897 0027 	ldrb.w	r0, [r7, #39]	; 0x27
    2cbc:	ea4f 1040 	mov.w	r0, r0, lsl #5
    2cc0:	1812      	adds	r2, r2, r0
    2cc2:	f502 5280 	add.w	r2, r2, #4096	; 0x1000
    2cc6:	f102 0218 	add.w	r2, r2, #24
    2cca:	8892      	ldrh	r2, [r2, #4]
    2ccc:	b292      	uxth	r2, r2
    2cce:	f042 0208 	orr.w	r2, r2, #8
    2cd2:	b292      	uxth	r2, r2
    2cd4:	ea4f 1141 	mov.w	r1, r1, lsl #5
    2cd8:	185b      	adds	r3, r3, r1
    2cda:	f503 5380 	add.w	r3, r3, #4096	; 0x1000
    2cde:	f103 0318 	add.w	r3, r3, #24
    2ce2:	809a      	strh	r2, [r3, #4]
    2ce4:	e01f      	b.n	2d26 <LPLD_DMA_Init+0x486>
  }
  else
  {
     DMA0->TCD[chx].CSR &= ~(DMA_CSR_DREQ_MASK); //ѭ󣬲رDMA
    2ce6:	f44f 4300 	mov.w	r3, #32768	; 0x8000
    2cea:	f2c4 0300 	movt	r3, #16384	; 0x4000
    2cee:	f897 1027 	ldrb.w	r1, [r7, #39]	; 0x27
    2cf2:	f44f 4200 	mov.w	r2, #32768	; 0x8000
    2cf6:	f2c4 0200 	movt	r2, #16384	; 0x4000
    2cfa:	f897 0027 	ldrb.w	r0, [r7, #39]	; 0x27
    2cfe:	ea4f 1040 	mov.w	r0, r0, lsl #5
    2d02:	1812      	adds	r2, r2, r0
    2d04:	f502 5280 	add.w	r2, r2, #4096	; 0x1000
    2d08:	f102 0218 	add.w	r2, r2, #24
    2d0c:	8892      	ldrh	r2, [r2, #4]
    2d0e:	b292      	uxth	r2, r2
    2d10:	f022 0208 	bic.w	r2, r2, #8
    2d14:	b292      	uxth	r2, r2
    2d16:	ea4f 1141 	mov.w	r1, r1, lsl #5
    2d1a:	185b      	adds	r3, r3, r1
    2d1c:	f503 5380 	add.w	r3, r3, #4096	; 0x1000
    2d20:	f103 0318 	add.w	r3, r3, #24
    2d24:	809a      	strh	r2, [r3, #4]
  } 
 
  //DMAͨʹ
  DMAMUX->CHCFG[chx] |= DMAMUX_CHCFG_ENBL_MASK;
    2d26:	f44f 5380 	mov.w	r3, #4096	; 0x1000
    2d2a:	f2c4 0302 	movt	r3, #16386	; 0x4002
    2d2e:	f897 1027 	ldrb.w	r1, [r7, #39]	; 0x27
    2d32:	f44f 5280 	mov.w	r2, #4096	; 0x1000
    2d36:	f2c4 0202 	movt	r2, #16386	; 0x4002
    2d3a:	f897 0027 	ldrb.w	r0, [r7, #39]	; 0x27
    2d3e:	5c12      	ldrb	r2, [r2, r0]
    2d40:	b2d2      	uxtb	r2, r2
    2d42:	f062 027f 	orn	r2, r2, #127	; 0x7f
    2d46:	b2d2      	uxtb	r2, r2
    2d48:	545a      	strb	r2, [r3, r1]
    
  return 1;
    2d4a:	f04f 0301 	mov.w	r3, #1
}
    2d4e:	4618      	mov	r0, r3
    2d50:	f107 072c 	add.w	r7, r7, #44	; 0x2c
    2d54:	46bd      	mov	sp, r7
    2d56:	bc80      	pop	{r7}
    2d58:	b004      	add	sp, #16
    2d5a:	4770      	bx	lr

00002d5c <LPLD_DMA_EnableIrq>:
 * :
 *    0--ʧ
 *    1--ɹ
 */
uint8 LPLD_DMA_EnableIrq(DMA_InitTypeDef dma_init_struct)
{
    2d5c:	b084      	sub	sp, #16
    2d5e:	b580      	push	{r7, lr}
    2d60:	af00      	add	r7, sp, #0
    2d62:	f107 0c08 	add.w	ip, r7, #8
    2d66:	e88c 000f 	stmia.w	ip, {r0, r1, r2, r3}
  enable_irq(dma_init_struct.DMA_CHx + INT_DMA0_DMA16 - 16);  
    2d6a:	7a3b      	ldrb	r3, [r7, #8]
    2d6c:	4618      	mov	r0, r3
    2d6e:	f7fd fecf 	bl	b10 <enable_irq>
  return 1;
    2d72:	f04f 0301 	mov.w	r3, #1
}
    2d76:	4618      	mov	r0, r3
    2d78:	46bd      	mov	sp, r7
    2d7a:	e8bd 4080 	ldmia.w	sp!, {r7, lr}
    2d7e:	b004      	add	sp, #16
    2d80:	4770      	bx	lr
    2d82:	bf00      	nop

00002d84 <LPLD_DMA_DisableIrq>:
 * :
 *    0--ʧ
 *    1--ɹ
 */
uint8 LPLD_DMA_DisableIrq(DMA_InitTypeDef dma_init_struct)
{
    2d84:	b084      	sub	sp, #16
    2d86:	b580      	push	{r7, lr}
    2d88:	af00      	add	r7, sp, #0
    2d8a:	f107 0c08 	add.w	ip, r7, #8
    2d8e:	e88c 000f 	stmia.w	ip, {r0, r1, r2, r3}
  disable_irq(dma_init_struct.DMA_CHx + INT_DMA0_DMA16 - 16);
    2d92:	7a3b      	ldrb	r3, [r7, #8]
    2d94:	4618      	mov	r0, r3
    2d96:	f7fd ff7f 	bl	c98 <disable_irq>
  return 1;
    2d9a:	f04f 0301 	mov.w	r3, #1
}
    2d9e:	4618      	mov	r0, r3
    2da0:	46bd      	mov	sp, r7
    2da2:	e8bd 4080 	ldmia.w	sp!, {r7, lr}
    2da6:	b004      	add	sp, #16
    2da8:	4770      	bx	lr
    2daa:	bf00      	nop

00002dac <LPLD_DMA_SoftwareStartService>:
 *
 * :
 *    
 */
void LPLD_DMA_SoftwareStartService(DMA_InitTypeDef dma_init_struct)
{
    2dac:	b084      	sub	sp, #16
    2dae:	b480      	push	{r7}
    2db0:	af00      	add	r7, sp, #0
    2db2:	f107 0c04 	add.w	ip, r7, #4
    2db6:	e88c 000f 	stmia.w	ip, {r0, r1, r2, r3}
  DMA0->TCD[dma_init_struct.DMA_CHx].CSR |= DMA_CSR_START_MASK; 
    2dba:	f44f 4300 	mov.w	r3, #32768	; 0x8000
    2dbe:	f2c4 0300 	movt	r3, #16384	; 0x4000
    2dc2:	793a      	ldrb	r2, [r7, #4]
    2dc4:	4611      	mov	r1, r2
    2dc6:	f44f 4200 	mov.w	r2, #32768	; 0x8000
    2dca:	f2c4 0200 	movt	r2, #16384	; 0x4000
    2dce:	7938      	ldrb	r0, [r7, #4]
    2dd0:	ea4f 1040 	mov.w	r0, r0, lsl #5
    2dd4:	1812      	adds	r2, r2, r0
    2dd6:	f502 5280 	add.w	r2, r2, #4096	; 0x1000
    2dda:	f102 0218 	add.w	r2, r2, #24
    2dde:	8892      	ldrh	r2, [r2, #4]
    2de0:	b292      	uxth	r2, r2
    2de2:	f042 0201 	orr.w	r2, r2, #1
    2de6:	b292      	uxth	r2, r2
    2de8:	ea4f 1141 	mov.w	r1, r1, lsl #5
    2dec:	185b      	adds	r3, r3, r1
    2dee:	f503 5380 	add.w	r3, r3, #4096	; 0x1000
    2df2:	f103 0318 	add.w	r3, r3, #24
    2df6:	809a      	strh	r2, [r3, #4]
}
    2df8:	46bd      	mov	sp, r7
    2dfa:	bc80      	pop	{r7}
    2dfc:	b004      	add	sp, #16
    2dfe:	4770      	bx	lr

00002e00 <DMA0_IRQHandler>:
 * eDMAжϴ
 * ļstartup_K60.sеж
 * û޸ģԶӦͨжϺ
 */
void DMA0_IRQHandler(void)
{
    2e00:	b580      	push	{r7, lr}
    2e02:	af00      	add	r7, sp, #0
  OSIntEnter();
  OS_EXIT_CRITICAL();
#endif  
  
  //ûԶжϷ
  DMA_ISR[0]();
    2e04:	f241 6304 	movw	r3, #5636	; 0x1604
    2e08:	f6c1 73ff 	movt	r3, #8191	; 0x1fff
    2e0c:	681b      	ldr	r3, [r3, #0]
    2e0e:	4798      	blx	r3
  //жϱ־λ
  DMA0->INT |= 0x1u<<0;
    2e10:	f44f 4300 	mov.w	r3, #32768	; 0x8000
    2e14:	f2c4 0300 	movt	r3, #16384	; 0x4000
    2e18:	f44f 4200 	mov.w	r2, #32768	; 0x8000
    2e1c:	f2c4 0200 	movt	r2, #16384	; 0x4000
    2e20:	6a52      	ldr	r2, [r2, #36]	; 0x24
    2e22:	f042 0201 	orr.w	r2, r2, #1
    2e26:	625a      	str	r2, [r3, #36]	; 0x24
  
#if (UCOS_II > 0u)
  OSIntExit();          //֪ϵͳʱ뿪жϷӺ
#endif
}
    2e28:	bd80      	pop	{r7, pc}
    2e2a:	bf00      	nop

00002e2c <DMA1_IRQHandler>:

void DMA1_IRQHandler(void)
{
    2e2c:	b580      	push	{r7, lr}
    2e2e:	af00      	add	r7, sp, #0
  OSIntEnter();
  OS_EXIT_CRITICAL();
#endif  
  
  //ûԶжϷ
  DMA_ISR[1]();
    2e30:	f241 6304 	movw	r3, #5636	; 0x1604
    2e34:	f6c1 73ff 	movt	r3, #8191	; 0x1fff
    2e38:	685b      	ldr	r3, [r3, #4]
    2e3a:	4798      	blx	r3
  //жϱ־λ
  DMA0->INT |= 0x1u<<1;
    2e3c:	f44f 4300 	mov.w	r3, #32768	; 0x8000
    2e40:	f2c4 0300 	movt	r3, #16384	; 0x4000
    2e44:	f44f 4200 	mov.w	r2, #32768	; 0x8000
    2e48:	f2c4 0200 	movt	r2, #16384	; 0x4000
    2e4c:	6a52      	ldr	r2, [r2, #36]	; 0x24
    2e4e:	f042 0202 	orr.w	r2, r2, #2
    2e52:	625a      	str	r2, [r3, #36]	; 0x24
  
#if (UCOS_II > 0u)
  OSIntExit();          //֪ϵͳʱ뿪жϷӺ
#endif
}
    2e54:	bd80      	pop	{r7, pc}
    2e56:	bf00      	nop

00002e58 <DMA2_IRQHandler>:

void DMA2_IRQHandler(void)
{
    2e58:	b580      	push	{r7, lr}
    2e5a:	af00      	add	r7, sp, #0
  OSIntEnter();
  OS_EXIT_CRITICAL();
#endif  
  
  //ûԶжϷ
  DMA_ISR[2]();
    2e5c:	f241 6304 	movw	r3, #5636	; 0x1604
    2e60:	f6c1 73ff 	movt	r3, #8191	; 0x1fff
    2e64:	689b      	ldr	r3, [r3, #8]
    2e66:	4798      	blx	r3
  //жϱ־λ
  DMA0->INT |= 0x1u<<2;
    2e68:	f44f 4300 	mov.w	r3, #32768	; 0x8000
    2e6c:	f2c4 0300 	movt	r3, #16384	; 0x4000
    2e70:	f44f 4200 	mov.w	r2, #32768	; 0x8000
    2e74:	f2c4 0200 	movt	r2, #16384	; 0x4000
    2e78:	6a52      	ldr	r2, [r2, #36]	; 0x24
    2e7a:	f042 0204 	orr.w	r2, r2, #4
    2e7e:	625a      	str	r2, [r3, #36]	; 0x24
  
#if (UCOS_II > 0u)
  OSIntExit();          //֪ϵͳʱ뿪жϷӺ
#endif
}
    2e80:	bd80      	pop	{r7, pc}
    2e82:	bf00      	nop

00002e84 <DMA3_IRQHandler>:

void DMA3_IRQHandler(void)
{
    2e84:	b580      	push	{r7, lr}
    2e86:	af00      	add	r7, sp, #0
  OSIntEnter();
  OS_EXIT_CRITICAL();
#endif  
  
  //ûԶжϷ
  DMA_ISR[3]();
    2e88:	f241 6304 	movw	r3, #5636	; 0x1604
    2e8c:	f6c1 73ff 	movt	r3, #8191	; 0x1fff
    2e90:	68db      	ldr	r3, [r3, #12]
    2e92:	4798      	blx	r3
  //жϱ־λ
  DMA0->INT |= 0x1u<<3;
    2e94:	f44f 4300 	mov.w	r3, #32768	; 0x8000
    2e98:	f2c4 0300 	movt	r3, #16384	; 0x4000
    2e9c:	f44f 4200 	mov.w	r2, #32768	; 0x8000
    2ea0:	f2c4 0200 	movt	r2, #16384	; 0x4000
    2ea4:	6a52      	ldr	r2, [r2, #36]	; 0x24
    2ea6:	f042 0208 	orr.w	r2, r2, #8
    2eaa:	625a      	str	r2, [r3, #36]	; 0x24
  
#if (UCOS_II > 0u)
  OSIntExit();          //֪ϵͳʱ뿪жϷӺ
#endif
}
    2eac:	bd80      	pop	{r7, pc}
    2eae:	bf00      	nop

00002eb0 <DMA4_IRQHandler>:

void DMA4_IRQHandler(void)
{
    2eb0:	b580      	push	{r7, lr}
    2eb2:	af00      	add	r7, sp, #0
  OSIntEnter();
  OS_EXIT_CRITICAL();
#endif  
  
  //ûԶжϷ
  DMA_ISR[4]();
    2eb4:	f241 6304 	movw	r3, #5636	; 0x1604
    2eb8:	f6c1 73ff 	movt	r3, #8191	; 0x1fff
    2ebc:	691b      	ldr	r3, [r3, #16]
    2ebe:	4798      	blx	r3
  //жϱ־λ
  DMA0->INT |= 0x1u<<4;
    2ec0:	f44f 4300 	mov.w	r3, #32768	; 0x8000
    2ec4:	f2c4 0300 	movt	r3, #16384	; 0x4000
    2ec8:	f44f 4200 	mov.w	r2, #32768	; 0x8000
    2ecc:	f2c4 0200 	movt	r2, #16384	; 0x4000
    2ed0:	6a52      	ldr	r2, [r2, #36]	; 0x24
    2ed2:	f042 0210 	orr.w	r2, r2, #16
    2ed6:	625a      	str	r2, [r3, #36]	; 0x24
  
#if (UCOS_II > 0u)
  OSIntExit();          //֪ϵͳʱ뿪жϷӺ
#endif
}
    2ed8:	bd80      	pop	{r7, pc}
    2eda:	bf00      	nop

00002edc <DMA5_IRQHandler>:

void DMA5_IRQHandler(void)
{
    2edc:	b580      	push	{r7, lr}
    2ede:	af00      	add	r7, sp, #0
  OSIntEnter();
  OS_EXIT_CRITICAL();
#endif  
  
  //ûԶжϷ
  DMA_ISR[5]();
    2ee0:	f241 6304 	movw	r3, #5636	; 0x1604
    2ee4:	f6c1 73ff 	movt	r3, #8191	; 0x1fff
    2ee8:	695b      	ldr	r3, [r3, #20]
    2eea:	4798      	blx	r3
  //жϱ־λ
  DMA0->INT |= 0x1u<<5;
    2eec:	f44f 4300 	mov.w	r3, #32768	; 0x8000
    2ef0:	f2c4 0300 	movt	r3, #16384	; 0x4000
    2ef4:	f44f 4200 	mov.w	r2, #32768	; 0x8000
    2ef8:	f2c4 0200 	movt	r2, #16384	; 0x4000
    2efc:	6a52      	ldr	r2, [r2, #36]	; 0x24
    2efe:	f042 0220 	orr.w	r2, r2, #32
    2f02:	625a      	str	r2, [r3, #36]	; 0x24
  
#if (UCOS_II > 0u)
  OSIntExit();          //֪ϵͳʱ뿪жϷӺ
#endif
}
    2f04:	bd80      	pop	{r7, pc}
    2f06:	bf00      	nop

00002f08 <DMA6_IRQHandler>:

void DMA6_IRQHandler(void)
{
    2f08:	b580      	push	{r7, lr}
    2f0a:	af00      	add	r7, sp, #0
  OSIntEnter();
  OS_EXIT_CRITICAL();
#endif  
  
  //ûԶжϷ
  DMA_ISR[6]();
    2f0c:	f241 6304 	movw	r3, #5636	; 0x1604
    2f10:	f6c1 73ff 	movt	r3, #8191	; 0x1fff
    2f14:	699b      	ldr	r3, [r3, #24]
    2f16:	4798      	blx	r3
  //жϱ־λ
  DMA0->INT |= 0x1u<<6;
    2f18:	f44f 4300 	mov.w	r3, #32768	; 0x8000
    2f1c:	f2c4 0300 	movt	r3, #16384	; 0x4000
    2f20:	f44f 4200 	mov.w	r2, #32768	; 0x8000
    2f24:	f2c4 0200 	movt	r2, #16384	; 0x4000
    2f28:	6a52      	ldr	r2, [r2, #36]	; 0x24
    2f2a:	f042 0240 	orr.w	r2, r2, #64	; 0x40
    2f2e:	625a      	str	r2, [r3, #36]	; 0x24
  
#if (UCOS_II > 0u)
  OSIntExit();          //֪ϵͳʱ뿪жϷӺ
#endif
}
    2f30:	bd80      	pop	{r7, pc}
    2f32:	bf00      	nop

00002f34 <DMA7_IRQHandler>:

void DMA7_IRQHandler(void)
{
    2f34:	b580      	push	{r7, lr}
    2f36:	af00      	add	r7, sp, #0
  OSIntEnter();
  OS_EXIT_CRITICAL();
#endif  
  
  //ûԶжϷ
  DMA_ISR[7]();
    2f38:	f241 6304 	movw	r3, #5636	; 0x1604
    2f3c:	f6c1 73ff 	movt	r3, #8191	; 0x1fff
    2f40:	69db      	ldr	r3, [r3, #28]
    2f42:	4798      	blx	r3
  //жϱ־λ
  DMA0->INT |= 0x1u<<7;
    2f44:	f44f 4300 	mov.w	r3, #32768	; 0x8000
    2f48:	f2c4 0300 	movt	r3, #16384	; 0x4000
    2f4c:	f44f 4200 	mov.w	r2, #32768	; 0x8000
    2f50:	f2c4 0200 	movt	r2, #16384	; 0x4000
    2f54:	6a52      	ldr	r2, [r2, #36]	; 0x24
    2f56:	f042 0280 	orr.w	r2, r2, #128	; 0x80
    2f5a:	625a      	str	r2, [r3, #36]	; 0x24
  
#if (UCOS_II > 0u)
  OSIntExit();          //֪ϵͳʱ뿪жϷӺ
#endif
}
    2f5c:	bd80      	pop	{r7, pc}
    2f5e:	bf00      	nop

00002f60 <DMA8_IRQHandler>:

void DMA8_IRQHandler(void)
{
    2f60:	b580      	push	{r7, lr}
    2f62:	af00      	add	r7, sp, #0
  OSIntEnter();
  OS_EXIT_CRITICAL();
#endif  
  
  //ûԶжϷ
  DMA_ISR[8]();
    2f64:	f241 6304 	movw	r3, #5636	; 0x1604
    2f68:	f6c1 73ff 	movt	r3, #8191	; 0x1fff
    2f6c:	6a1b      	ldr	r3, [r3, #32]
    2f6e:	4798      	blx	r3
  //жϱ־λ
  DMA0->INT |= 0x1u<<8;
    2f70:	f44f 4300 	mov.w	r3, #32768	; 0x8000
    2f74:	f2c4 0300 	movt	r3, #16384	; 0x4000
    2f78:	f44f 4200 	mov.w	r2, #32768	; 0x8000
    2f7c:	f2c4 0200 	movt	r2, #16384	; 0x4000
    2f80:	6a52      	ldr	r2, [r2, #36]	; 0x24
    2f82:	f442 7280 	orr.w	r2, r2, #256	; 0x100
    2f86:	625a      	str	r2, [r3, #36]	; 0x24
  
#if (UCOS_II > 0u)
  OSIntExit();          //֪ϵͳʱ뿪жϷӺ
#endif
}
    2f88:	bd80      	pop	{r7, pc}
    2f8a:	bf00      	nop

00002f8c <DMA9_IRQHandler>:

void DMA9_IRQHandler(void)
{
    2f8c:	b580      	push	{r7, lr}
    2f8e:	af00      	add	r7, sp, #0
  OSIntEnter();
  OS_EXIT_CRITICAL();
#endif  
  
  //ûԶжϷ
  DMA_ISR[9]();
    2f90:	f241 6304 	movw	r3, #5636	; 0x1604
    2f94:	f6c1 73ff 	movt	r3, #8191	; 0x1fff
    2f98:	6a5b      	ldr	r3, [r3, #36]	; 0x24
    2f9a:	4798      	blx	r3
  //жϱ־λ
  DMA0->INT |= 0x1u<<9;
    2f9c:	f44f 4300 	mov.w	r3, #32768	; 0x8000
    2fa0:	f2c4 0300 	movt	r3, #16384	; 0x4000
    2fa4:	f44f 4200 	mov.w	r2, #32768	; 0x8000
    2fa8:	f2c4 0200 	movt	r2, #16384	; 0x4000
    2fac:	6a52      	ldr	r2, [r2, #36]	; 0x24
    2fae:	f442 7200 	orr.w	r2, r2, #512	; 0x200
    2fb2:	625a      	str	r2, [r3, #36]	; 0x24
  
#if (UCOS_II > 0u)
  OSIntExit();          //֪ϵͳʱ뿪жϷӺ
#endif
}
    2fb4:	bd80      	pop	{r7, pc}
    2fb6:	bf00      	nop

00002fb8 <DMA10_IRQHandler>:

void DMA10_IRQHandler(void)
{
    2fb8:	b580      	push	{r7, lr}
    2fba:	af00      	add	r7, sp, #0
  OSIntEnter();
  OS_EXIT_CRITICAL();
#endif  
  
  //ûԶжϷ
  DMA_ISR[10]();
    2fbc:	f241 6304 	movw	r3, #5636	; 0x1604
    2fc0:	f6c1 73ff 	movt	r3, #8191	; 0x1fff
    2fc4:	6a9b      	ldr	r3, [r3, #40]	; 0x28
    2fc6:	4798      	blx	r3
  //жϱ־λ
  DMA0->INT |= 0x1u<10;
    2fc8:	f44f 4300 	mov.w	r3, #32768	; 0x8000
    2fcc:	f2c4 0300 	movt	r3, #16384	; 0x4000
    2fd0:	f44f 4200 	mov.w	r2, #32768	; 0x8000
    2fd4:	f2c4 0200 	movt	r2, #16384	; 0x4000
    2fd8:	6a52      	ldr	r2, [r2, #36]	; 0x24
    2fda:	f042 0201 	orr.w	r2, r2, #1
    2fde:	625a      	str	r2, [r3, #36]	; 0x24
  
#if (UCOS_II > 0u)
  OSIntExit();          //֪ϵͳʱ뿪жϷӺ
#endif
}
    2fe0:	bd80      	pop	{r7, pc}
    2fe2:	bf00      	nop

00002fe4 <DMA11_IRQHandler>:

void DMA11_IRQHandler(void)
{
    2fe4:	b580      	push	{r7, lr}
    2fe6:	af00      	add	r7, sp, #0
  OSIntEnter();
  OS_EXIT_CRITICAL();
#endif  
  
  //ûԶжϷ
  DMA_ISR[11]();
    2fe8:	f241 6304 	movw	r3, #5636	; 0x1604
    2fec:	f6c1 73ff 	movt	r3, #8191	; 0x1fff
    2ff0:	6adb      	ldr	r3, [r3, #44]	; 0x2c
    2ff2:	4798      	blx	r3
  //жϱ־λ
  DMA0->INT |= 0x1u<<11;
    2ff4:	f44f 4300 	mov.w	r3, #32768	; 0x8000
    2ff8:	f2c4 0300 	movt	r3, #16384	; 0x4000
    2ffc:	f44f 4200 	mov.w	r2, #32768	; 0x8000
    3000:	f2c4 0200 	movt	r2, #16384	; 0x4000
    3004:	6a52      	ldr	r2, [r2, #36]	; 0x24
    3006:	f442 6200 	orr.w	r2, r2, #2048	; 0x800
    300a:	625a      	str	r2, [r3, #36]	; 0x24
  
#if (UCOS_II > 0u)
  OSIntExit();          //֪ϵͳʱ뿪жϷӺ
#endif
}
    300c:	bd80      	pop	{r7, pc}
    300e:	bf00      	nop

00003010 <DMA12_IRQHandler>:

void DMA12_IRQHandler(void)
{
    3010:	b580      	push	{r7, lr}
    3012:	af00      	add	r7, sp, #0
  OSIntEnter();
  OS_EXIT_CRITICAL();
#endif  
  
  //ûԶжϷ
  DMA_ISR[12]();
    3014:	f241 6304 	movw	r3, #5636	; 0x1604
    3018:	f6c1 73ff 	movt	r3, #8191	; 0x1fff
    301c:	6b1b      	ldr	r3, [r3, #48]	; 0x30
    301e:	4798      	blx	r3
  //жϱ־λ
  DMA0->INT |= 0x1u<<12;
    3020:	f44f 4300 	mov.w	r3, #32768	; 0x8000
    3024:	f2c4 0300 	movt	r3, #16384	; 0x4000
    3028:	f44f 4200 	mov.w	r2, #32768	; 0x8000
    302c:	f2c4 0200 	movt	r2, #16384	; 0x4000
    3030:	6a52      	ldr	r2, [r2, #36]	; 0x24
    3032:	f442 5280 	orr.w	r2, r2, #4096	; 0x1000
    3036:	625a      	str	r2, [r3, #36]	; 0x24
  
#if (UCOS_II > 0u)
  OSIntExit();          //֪ϵͳʱ뿪жϷӺ
#endif
}
    3038:	bd80      	pop	{r7, pc}
    303a:	bf00      	nop

0000303c <DMA13_IRQHandler>:

void DMA13_IRQHandler(void)
{
    303c:	b580      	push	{r7, lr}
    303e:	af00      	add	r7, sp, #0
  OSIntEnter();
  OS_EXIT_CRITICAL();
#endif  
  
  //ûԶжϷ
  DMA_ISR[13]();
    3040:	f241 6304 	movw	r3, #5636	; 0x1604
    3044:	f6c1 73ff 	movt	r3, #8191	; 0x1fff
    3048:	6b5b      	ldr	r3, [r3, #52]	; 0x34
    304a:	4798      	blx	r3
  //жϱ־λ
  DMA0->INT |= 0x1u<<13;
    304c:	f44f 4300 	mov.w	r3, #32768	; 0x8000
    3050:	f2c4 0300 	movt	r3, #16384	; 0x4000
    3054:	f44f 4200 	mov.w	r2, #32768	; 0x8000
    3058:	f2c4 0200 	movt	r2, #16384	; 0x4000
    305c:	6a52      	ldr	r2, [r2, #36]	; 0x24
    305e:	f442 5200 	orr.w	r2, r2, #8192	; 0x2000
    3062:	625a      	str	r2, [r3, #36]	; 0x24
  
#if (UCOS_II > 0u)
  OSIntExit();          //֪ϵͳʱ뿪жϷӺ
#endif
}
    3064:	bd80      	pop	{r7, pc}
    3066:	bf00      	nop

00003068 <DMA14_IRQHandler>:

void DMA14_IRQHandler(void)
{
    3068:	b580      	push	{r7, lr}
    306a:	af00      	add	r7, sp, #0
  OSIntEnter();
  OS_EXIT_CRITICAL();
#endif  
  
  //ûԶжϷ
  DMA_ISR[14]();
    306c:	f241 6304 	movw	r3, #5636	; 0x1604
    3070:	f6c1 73ff 	movt	r3, #8191	; 0x1fff
    3074:	6b9b      	ldr	r3, [r3, #56]	; 0x38
    3076:	4798      	blx	r3
  //жϱ־λ
  DMA0->INT |= 0x1u<<14;
    3078:	f44f 4300 	mov.w	r3, #32768	; 0x8000
    307c:	f2c4 0300 	movt	r3, #16384	; 0x4000
    3080:	f44f 4200 	mov.w	r2, #32768	; 0x8000
    3084:	f2c4 0200 	movt	r2, #16384	; 0x4000
    3088:	6a52      	ldr	r2, [r2, #36]	; 0x24
    308a:	f442 4280 	orr.w	r2, r2, #16384	; 0x4000
    308e:	625a      	str	r2, [r3, #36]	; 0x24
  
#if (UCOS_II > 0u)
  OSIntExit();          //֪ϵͳʱ뿪жϷӺ
#endif
}
    3090:	bd80      	pop	{r7, pc}
    3092:	bf00      	nop

00003094 <DMA15_IRQHandler>:

void DMA15_IRQHandler(void)
{
    3094:	b580      	push	{r7, lr}
    3096:	af00      	add	r7, sp, #0
  OSIntEnter();
  OS_EXIT_CRITICAL();
#endif  
  
  //ûԶжϷ
  DMA_ISR[15]();
    3098:	f241 6304 	movw	r3, #5636	; 0x1604
    309c:	f6c1 73ff 	movt	r3, #8191	; 0x1fff
    30a0:	6bdb      	ldr	r3, [r3, #60]	; 0x3c
    30a2:	4798      	blx	r3
  //жϱ־λ
  DMA0->INT |= 0x1u<<15;
    30a4:	f44f 4300 	mov.w	r3, #32768	; 0x8000
    30a8:	f2c4 0300 	movt	r3, #16384	; 0x4000
    30ac:	f44f 4200 	mov.w	r2, #32768	; 0x8000
    30b0:	f2c4 0200 	movt	r2, #16384	; 0x4000
    30b4:	6a52      	ldr	r2, [r2, #36]	; 0x24
    30b6:	f442 4200 	orr.w	r2, r2, #32768	; 0x8000
    30ba:	625a      	str	r2, [r3, #36]	; 0x24
  
#if (UCOS_II > 0u)
  OSIntExit();          //֪ϵͳʱ뿪жϷӺ
#endif
}
    30bc:	bd80      	pop	{r7, pc}
    30be:	bf00      	nop

000030c0 <LPLD_FTM_Init>:
 * :
 *    0--ô
 *    1--óɹ
 */
uint8 LPLD_FTM_Init(FTM_InitTypeDef ftm_init_structure)
{
    30c0:	b084      	sub	sp, #16
    30c2:	b580      	push	{r7, lr}
    30c4:	b086      	sub	sp, #24
    30c6:	af04      	add	r7, sp, #16
    30c8:	f107 0c10 	add.w	ip, r7, #16
    30cc:	e88c 000f 	stmia.w	ip, {r0, r1, r2, r3}
  uint8 result, i;
  
  // ʹFTMʱģ
  if(ftm_init_structure.FTM_Ftmx == FTM0)
    30d0:	693a      	ldr	r2, [r7, #16]
    30d2:	f44f 4300 	mov.w	r3, #32768	; 0x8000
    30d6:	f2c4 0303 	movt	r3, #16387	; 0x4003
    30da:	429a      	cmp	r2, r3
    30dc:	d117      	bne.n	310e <LPLD_FTM_Init+0x4e>
  {
    i=0; 
    30de:	f04f 0300 	mov.w	r3, #0
    30e2:	71bb      	strb	r3, [r7, #6]
    SIM_SCGC6 |= SIM_SCGC6_FTM0_MASK;
    30e4:	f44f 43e0 	mov.w	r3, #28672	; 0x7000
    30e8:	f2c4 0304 	movt	r3, #16388	; 0x4004
    30ec:	f44f 42e0 	mov.w	r2, #28672	; 0x7000
    30f0:	f2c4 0204 	movt	r2, #16388	; 0x4004
    30f4:	f502 5281 	add.w	r2, r2, #4128	; 0x1020
    30f8:	f102 021c 	add.w	r2, r2, #28
    30fc:	6812      	ldr	r2, [r2, #0]
    30fe:	f042 7280 	orr.w	r2, r2, #16777216	; 0x1000000
    3102:	f503 5381 	add.w	r3, r3, #4128	; 0x1020
    3106:	f103 031c 	add.w	r3, r3, #28
    310a:	601a      	str	r2, [r3, #0]
    310c:	e05f      	b.n	31ce <LPLD_FTM_Init+0x10e>
  }
  else if(ftm_init_structure.FTM_Ftmx == FTM1)
    310e:	693a      	ldr	r2, [r7, #16]
    3110:	f44f 4310 	mov.w	r3, #36864	; 0x9000
    3114:	f2c4 0303 	movt	r3, #16387	; 0x4003
    3118:	429a      	cmp	r2, r3
    311a:	d117      	bne.n	314c <LPLD_FTM_Init+0x8c>
  {
    i=1;
    311c:	f04f 0301 	mov.w	r3, #1
    3120:	71bb      	strb	r3, [r7, #6]
    SIM_SCGC6 |= SIM_SCGC6_FTM1_MASK;
    3122:	f44f 43e0 	mov.w	r3, #28672	; 0x7000
    3126:	f2c4 0304 	movt	r3, #16388	; 0x4004
    312a:	f44f 42e0 	mov.w	r2, #28672	; 0x7000
    312e:	f2c4 0204 	movt	r2, #16388	; 0x4004
    3132:	f502 5281 	add.w	r2, r2, #4128	; 0x1020
    3136:	f102 021c 	add.w	r2, r2, #28
    313a:	6812      	ldr	r2, [r2, #0]
    313c:	f042 7200 	orr.w	r2, r2, #33554432	; 0x2000000
    3140:	f503 5381 	add.w	r3, r3, #4128	; 0x1020
    3144:	f103 031c 	add.w	r3, r3, #28
    3148:	601a      	str	r2, [r3, #0]
    314a:	e040      	b.n	31ce <LPLD_FTM_Init+0x10e>
  }
  else if(ftm_init_structure.FTM_Ftmx == FTM2)
    314c:	693a      	ldr	r2, [r7, #16]
    314e:	f44f 4300 	mov.w	r3, #32768	; 0x8000
    3152:	f2c4 030b 	movt	r3, #16395	; 0x400b
    3156:	429a      	cmp	r2, r3
    3158:	d117      	bne.n	318a <LPLD_FTM_Init+0xca>
  {
    i=2;
    315a:	f04f 0302 	mov.w	r3, #2
    315e:	71bb      	strb	r3, [r7, #6]
    SIM_SCGC3 |= SIM_SCGC3_FTM2_MASK;
    3160:	f44f 43e0 	mov.w	r3, #28672	; 0x7000
    3164:	f2c4 0304 	movt	r3, #16388	; 0x4004
    3168:	f44f 42e0 	mov.w	r2, #28672	; 0x7000
    316c:	f2c4 0204 	movt	r2, #16388	; 0x4004
    3170:	f502 5281 	add.w	r2, r2, #4128	; 0x1020
    3174:	f102 0210 	add.w	r2, r2, #16
    3178:	6812      	ldr	r2, [r2, #0]
    317a:	f042 7280 	orr.w	r2, r2, #16777216	; 0x1000000
    317e:	f503 5381 	add.w	r3, r3, #4128	; 0x1020
    3182:	f103 0310 	add.w	r3, r3, #16
    3186:	601a      	str	r2, [r3, #0]
    3188:	e021      	b.n	31ce <LPLD_FTM_Init+0x10e>
  }
  else if (ftm_init_structure.FTM_Ftmx == FTM3)
    318a:	693a      	ldr	r2, [r7, #16]
    318c:	f44f 4310 	mov.w	r3, #36864	; 0x9000
    3190:	f2c4 030b 	movt	r3, #16395	; 0x400b
    3194:	429a      	cmp	r2, r3
    3196:	d117      	bne.n	31c8 <LPLD_FTM_Init+0x108>
  {
    i = 3;
    3198:	f04f 0303 	mov.w	r3, #3
    319c:	71bb      	strb	r3, [r7, #6]
    SIM_SCGC3 |= SIM_SCGC3_FTM3_MASK;
    319e:	f44f 43e0 	mov.w	r3, #28672	; 0x7000
    31a2:	f2c4 0304 	movt	r3, #16388	; 0x4004
    31a6:	f44f 42e0 	mov.w	r2, #28672	; 0x7000
    31aa:	f2c4 0204 	movt	r2, #16388	; 0x4004
    31ae:	f502 5281 	add.w	r2, r2, #4128	; 0x1020
    31b2:	f102 0210 	add.w	r2, r2, #16
    31b6:	6812      	ldr	r2, [r2, #0]
    31b8:	f042 7200 	orr.w	r2, r2, #33554432	; 0x2000000
    31bc:	f503 5381 	add.w	r3, r3, #4128	; 0x1020
    31c0:	f103 0310 	add.w	r3, r3, #16
    31c4:	601a      	str	r2, [r3, #0]
    31c6:	e002      	b.n	31ce <LPLD_FTM_Init+0x10e>
  }
  else
  {
    return 0;
    31c8:	f04f 0300 	mov.w	r3, #0
    31cc:	e067      	b.n	329e <LPLD_FTM_Init+0x1de>
  }
  
  if(ftm_init_structure.FTM_Mode & FTM_MODE_PWM)
    31ce:	7d3b      	ldrb	r3, [r7, #20]
    31d0:	f003 0301 	and.w	r3, r3, #1
    31d4:	2b00      	cmp	r3, #0
    31d6:	d00e      	beq.n	31f6 <LPLD_FTM_Init+0x136>
  {
    result = LPLD_FTM_PWM_Init(ftm_init_structure);
    31d8:	466b      	mov	r3, sp
    31da:	f107 0220 	add.w	r2, r7, #32
    31de:	ca07      	ldmia	r2, {r0, r1, r2}
    31e0:	e883 0007 	stmia.w	r3, {r0, r1, r2}
    31e4:	f107 0c10 	add.w	ip, r7, #16
    31e8:	e89c 000f 	ldmia.w	ip, {r0, r1, r2, r3}
    31ec:	f000 fbbe 	bl	396c <LPLD_FTM_PWM_Init>
    31f0:	4603      	mov	r3, r0
    31f2:	71fb      	strb	r3, [r7, #7]
    31f4:	e03a      	b.n	326c <LPLD_FTM_Init+0x1ac>
  }
  else if(ftm_init_structure.FTM_Mode & FTM_MODE_IC)
    31f6:	7d3b      	ldrb	r3, [r7, #20]
    31f8:	f003 0302 	and.w	r3, r3, #2
    31fc:	2b00      	cmp	r3, #0
    31fe:	d00e      	beq.n	321e <LPLD_FTM_Init+0x15e>
  {
    result = LPLD_FTM_IC_Init(ftm_init_structure);
    3200:	466b      	mov	r3, sp
    3202:	f107 0220 	add.w	r2, r7, #32
    3206:	ca07      	ldmia	r2, {r0, r1, r2}
    3208:	e883 0007 	stmia.w	r3, {r0, r1, r2}
    320c:	f107 0c10 	add.w	ip, r7, #16
    3210:	e89c 000f 	ldmia.w	ip, {r0, r1, r2, r3}
    3214:	f000 fc88 	bl	3b28 <LPLD_FTM_IC_Init>
    3218:	4603      	mov	r3, r0
    321a:	71fb      	strb	r3, [r7, #7]
    321c:	e026      	b.n	326c <LPLD_FTM_Init+0x1ac>
  }
  else if(ftm_init_structure.FTM_Mode & FTM_MODE_QD)
    321e:	7d3b      	ldrb	r3, [r7, #20]
    3220:	f003 0304 	and.w	r3, r3, #4
    3224:	2b00      	cmp	r3, #0
    3226:	d00e      	beq.n	3246 <LPLD_FTM_Init+0x186>
  {
    result = LPLD_FTM_QD_Init(ftm_init_structure);
    3228:	466b      	mov	r3, sp
    322a:	f107 0220 	add.w	r2, r7, #32
    322e:	ca07      	ldmia	r2, {r0, r1, r2}
    3230:	e883 0007 	stmia.w	r3, {r0, r1, r2}
    3234:	f107 0c10 	add.w	ip, r7, #16
    3238:	e89c 000f 	ldmia.w	ip, {r0, r1, r2, r3}
    323c:	f001 fcc4 	bl	4bc8 <LPLD_FTM_QD_Init>
    3240:	4603      	mov	r3, r0
    3242:	71fb      	strb	r3, [r7, #7]
    3244:	e012      	b.n	326c <LPLD_FTM_Init+0x1ac>
  }
  else if(ftm_init_structure.FTM_Mode & FTM_MODE_DEC)
    3246:	7d3b      	ldrb	r3, [r7, #20]
    3248:	f003 0308 	and.w	r3, r3, #8
    324c:	2b00      	cmp	r3, #0
    324e:	d00d      	beq.n	326c <LPLD_FTM_Init+0x1ac>
  {
    result = LPLD_FTM_DEC_Init(ftm_init_structure);
    3250:	466b      	mov	r3, sp
    3252:	f107 0220 	add.w	r2, r7, #32
    3256:	ca07      	ldmia	r2, {r0, r1, r2}
    3258:	e883 0007 	stmia.w	r3, {r0, r1, r2}
    325c:	f107 0c10 	add.w	ip, r7, #16
    3260:	e89c 000f 	ldmia.w	ip, {r0, r1, r2, r3}
    3264:	f001 fce8 	bl	4c38 <LPLD_FTM_DEC_Init>
    3268:	4603      	mov	r3, r0
    326a:	71fb      	strb	r3, [r7, #7]
  }
  
  if(result == 1)
    326c:	79fb      	ldrb	r3, [r7, #7]
    326e:	2b01      	cmp	r3, #1
    3270:	d114      	bne.n	329c <LPLD_FTM_Init+0x1dc>
  {    
    //жǷж
    if(ftm_init_structure.FTM_Isr!=NULL)
    3272:	6abb      	ldr	r3, [r7, #40]	; 0x28
    3274:	2b00      	cmp	r3, #0
    3276:	d011      	beq.n	329c <LPLD_FTM_Init+0x1dc>
    {      
      FTM_ISR[i] = ftm_init_structure.FTM_Isr;
    3278:	79ba      	ldrb	r2, [r7, #6]
    327a:	6ab9      	ldr	r1, [r7, #40]	; 0x28
    327c:	f241 6344 	movw	r3, #5700	; 0x1644
    3280:	f6c1 73ff 	movt	r3, #8191	; 0x1fff
    3284:	f843 1022 	str.w	r1, [r3, r2, lsl #2]
      if(ftm_init_structure.FTM_ToiEnable == TRUE)
    3288:	f897 3024 	ldrb.w	r3, [r7, #36]	; 0x24
    328c:	2b01      	cmp	r3, #1
    328e:	d105      	bne.n	329c <LPLD_FTM_Init+0x1dc>
      {
        ftm_init_structure.FTM_Ftmx->SC |= FTM_SC_TOIE_MASK;
    3290:	693b      	ldr	r3, [r7, #16]
    3292:	693a      	ldr	r2, [r7, #16]
    3294:	6812      	ldr	r2, [r2, #0]
    3296:	f042 0240 	orr.w	r2, r2, #64	; 0x40
    329a:	601a      	str	r2, [r3, #0]
      }
    }
  }
  
  return result;
    329c:	79fb      	ldrb	r3, [r7, #7]
}
    329e:	4618      	mov	r0, r3
    32a0:	f107 0708 	add.w	r7, r7, #8
    32a4:	46bd      	mov	sp, r7
    32a6:	e8bd 4080 	ldmia.w	sp!, {r7, lr}
    32aa:	b004      	add	sp, #16
    32ac:	4770      	bx	lr
    32ae:	bf00      	nop

000032b0 <LPLD_FTM_Deinit>:
 * :
 *    0--ô
 *    1--óɹ
 */
uint8 LPLD_FTM_Deinit(FTM_InitTypeDef ftm_init_structure)
{
    32b0:	b084      	sub	sp, #16
    32b2:	b580      	push	{r7, lr}
    32b4:	b084      	sub	sp, #16
    32b6:	af04      	add	r7, sp, #16
    32b8:	f107 0c08 	add.w	ip, r7, #8
    32bc:	e88c 000f 	stmia.w	ip, {r0, r1, r2, r3}
  if(ftm_init_structure.FTM_Ftmx == FTM0)
    32c0:	68ba      	ldr	r2, [r7, #8]
    32c2:	f44f 4300 	mov.w	r3, #32768	; 0x8000
    32c6:	f2c4 0303 	movt	r3, #16387	; 0x4003
    32ca:	429a      	cmp	r2, r3
    32cc:	d114      	bne.n	32f8 <LPLD_FTM_Deinit+0x48>
  {
    SIM_SCGC6 &= ~SIM_SCGC6_FTM0_MASK;
    32ce:	f44f 43e0 	mov.w	r3, #28672	; 0x7000
    32d2:	f2c4 0304 	movt	r3, #16388	; 0x4004
    32d6:	f44f 42e0 	mov.w	r2, #28672	; 0x7000
    32da:	f2c4 0204 	movt	r2, #16388	; 0x4004
    32de:	f502 5281 	add.w	r2, r2, #4128	; 0x1020
    32e2:	f102 021c 	add.w	r2, r2, #28
    32e6:	6812      	ldr	r2, [r2, #0]
    32e8:	f022 7280 	bic.w	r2, r2, #16777216	; 0x1000000
    32ec:	f503 5381 	add.w	r3, r3, #4128	; 0x1020
    32f0:	f103 031c 	add.w	r3, r3, #28
    32f4:	601a      	str	r2, [r3, #0]
    32f6:	e056      	b.n	33a6 <LPLD_FTM_Deinit+0xf6>
  }
  else if(ftm_init_structure.FTM_Ftmx == FTM1)
    32f8:	68ba      	ldr	r2, [r7, #8]
    32fa:	f44f 4310 	mov.w	r3, #36864	; 0x9000
    32fe:	f2c4 0303 	movt	r3, #16387	; 0x4003
    3302:	429a      	cmp	r2, r3
    3304:	d114      	bne.n	3330 <LPLD_FTM_Deinit+0x80>
  {
    SIM_SCGC6 &= ~SIM_SCGC6_FTM1_MASK;
    3306:	f44f 43e0 	mov.w	r3, #28672	; 0x7000
    330a:	f2c4 0304 	movt	r3, #16388	; 0x4004
    330e:	f44f 42e0 	mov.w	r2, #28672	; 0x7000
    3312:	f2c4 0204 	movt	r2, #16388	; 0x4004
    3316:	f502 5281 	add.w	r2, r2, #4128	; 0x1020
    331a:	f102 021c 	add.w	r2, r2, #28
    331e:	6812      	ldr	r2, [r2, #0]
    3320:	f022 7200 	bic.w	r2, r2, #33554432	; 0x2000000
    3324:	f503 5381 	add.w	r3, r3, #4128	; 0x1020
    3328:	f103 031c 	add.w	r3, r3, #28
    332c:	601a      	str	r2, [r3, #0]
    332e:	e03a      	b.n	33a6 <LPLD_FTM_Deinit+0xf6>
  }
  else if(ftm_init_structure.FTM_Ftmx == FTM2)
    3330:	68ba      	ldr	r2, [r7, #8]
    3332:	f44f 4300 	mov.w	r3, #32768	; 0x8000
    3336:	f2c4 030b 	movt	r3, #16395	; 0x400b
    333a:	429a      	cmp	r2, r3
    333c:	d114      	bne.n	3368 <LPLD_FTM_Deinit+0xb8>
  {
    SIM_SCGC3 &= ~SIM_SCGC3_FTM2_MASK;
    333e:	f44f 43e0 	mov.w	r3, #28672	; 0x7000
    3342:	f2c4 0304 	movt	r3, #16388	; 0x4004
    3346:	f44f 42e0 	mov.w	r2, #28672	; 0x7000
    334a:	f2c4 0204 	movt	r2, #16388	; 0x4004
    334e:	f502 5281 	add.w	r2, r2, #4128	; 0x1020
    3352:	f102 0210 	add.w	r2, r2, #16
    3356:	6812      	ldr	r2, [r2, #0]
    3358:	f022 7280 	bic.w	r2, r2, #16777216	; 0x1000000
    335c:	f503 5381 	add.w	r3, r3, #4128	; 0x1020
    3360:	f103 0310 	add.w	r3, r3, #16
    3364:	601a      	str	r2, [r3, #0]
    3366:	e01e      	b.n	33a6 <LPLD_FTM_Deinit+0xf6>
  }
  else if (ftm_init_structure.FTM_Ftmx == FTM3)
    3368:	68ba      	ldr	r2, [r7, #8]
    336a:	f44f 4310 	mov.w	r3, #36864	; 0x9000
    336e:	f2c4 030b 	movt	r3, #16395	; 0x400b
    3372:	429a      	cmp	r2, r3
    3374:	d114      	bne.n	33a0 <LPLD_FTM_Deinit+0xf0>
  {
      SIM_SCGC3 &= ~SIM_SCGC3_FTM3_MASK;
    3376:	f44f 43e0 	mov.w	r3, #28672	; 0x7000
    337a:	f2c4 0304 	movt	r3, #16388	; 0x4004
    337e:	f44f 42e0 	mov.w	r2, #28672	; 0x7000
    3382:	f2c4 0204 	movt	r2, #16388	; 0x4004
    3386:	f502 5281 	add.w	r2, r2, #4128	; 0x1020
    338a:	f102 0210 	add.w	r2, r2, #16
    338e:	6812      	ldr	r2, [r2, #0]
    3390:	f022 7200 	bic.w	r2, r2, #33554432	; 0x2000000
    3394:	f503 5381 	add.w	r3, r3, #4128	; 0x1020
    3398:	f103 0310 	add.w	r3, r3, #16
    339c:	601a      	str	r2, [r3, #0]
    339e:	e002      	b.n	33a6 <LPLD_FTM_Deinit+0xf6>
  }
  else
  {
    return 0;
    33a0:	f04f 0300 	mov.w	r3, #0
    33a4:	e00c      	b.n	33c0 <LPLD_FTM_Deinit+0x110>
  }
  
  return LPLD_FTM_DisableIrq(ftm_init_structure);
    33a6:	466b      	mov	r3, sp
    33a8:	f107 0218 	add.w	r2, r7, #24
    33ac:	ca07      	ldmia	r2, {r0, r1, r2}
    33ae:	e883 0007 	stmia.w	r3, {r0, r1, r2}
    33b2:	f107 0c08 	add.w	ip, r7, #8
    33b6:	e89c 000f 	ldmia.w	ip, {r0, r1, r2, r3}
    33ba:	f000 fa41 	bl	3840 <LPLD_FTM_DisableIrq>
    33be:	4603      	mov	r3, r0
}
    33c0:	4618      	mov	r0, r3
    33c2:	46bd      	mov	sp, r7
    33c4:	e8bd 4080 	ldmia.w	sp!, {r7, lr}
    33c8:	b004      	add	sp, #16
    33ca:	4770      	bx	lr

000033cc <LPLD_FTM_PWM_Enable>:
 * :
 *    0--ô
 *    1--óɹ
 */
uint8 LPLD_FTM_PWM_Enable(FTM_MemMapPtr  ftmx, FtmChnEnum_Type chn, uint32 duty, PortPinsEnum_Type pin, uint8 align)
{
    33cc:	b580      	push	{r7, lr}
    33ce:	b086      	sub	sp, #24
    33d0:	af00      	add	r7, sp, #0
    33d2:	60f8      	str	r0, [r7, #12]
    33d4:	607a      	str	r2, [r7, #4]
    33d6:	460a      	mov	r2, r1
    33d8:	72fa      	strb	r2, [r7, #11]
    33da:	72bb      	strb	r3, [r7, #10]
  uint32 cv;
  vuint32 mod;
 
  if (duty > 10000)
    33dc:	687a      	ldr	r2, [r7, #4]
    33de:	f242 7310 	movw	r3, #10000	; 0x2710
    33e2:	429a      	cmp	r2, r3
    33e4:	d902      	bls.n	33ec <LPLD_FTM_PWM_Enable+0x20>
    return 0;
    33e6:	f04f 0300 	mov.w	r3, #0
    33ea:	e03d      	b.n	3468 <LPLD_FTM_PWM_Enable+0x9c>
  //
  //ASSERT( duty <= 10000 );                  //жռձ
  
  if(!LPLD_FTM_PinInit(ftmx, chn, pin))
    33ec:	7afa      	ldrb	r2, [r7, #11]
    33ee:	7abb      	ldrb	r3, [r7, #10]
    33f0:	68f8      	ldr	r0, [r7, #12]
    33f2:	4611      	mov	r1, r2
    33f4:	461a      	mov	r2, r3
    33f6:	f000 fc1d 	bl	3c34 <LPLD_FTM_PinInit>
    33fa:	4603      	mov	r3, r0
    33fc:	2b00      	cmp	r3, #0
    33fe:	d102      	bne.n	3406 <LPLD_FTM_PWM_Enable+0x3a>
    return 0;
    3400:	f04f 0300 	mov.w	r3, #0
    3404:	e030      	b.n	3468 <LPLD_FTM_PWM_Enable+0x9c>
  
  //Ҷ룬100%-ռձ
  if(align == ALIGN_RIGHT)
    3406:	f897 3020 	ldrb.w	r3, [r7, #32]
    340a:	2b24      	cmp	r3, #36	; 0x24
    340c:	d105      	bne.n	341a <LPLD_FTM_PWM_Enable+0x4e>
  {
    duty = 10000 - duty;
    340e:	687b      	ldr	r3, [r7, #4]
    3410:	f5c3 531c 	rsb	r3, r3, #9984	; 0x2700
    3414:	f103 0310 	add.w	r3, r3, #16
    3418:	607b      	str	r3, [r7, #4]
  }
  
  //ռձ = (CnV-CNTIN)/(MOD-CNTIN+1)
  mod = ftmx->MOD;
    341a:	68fb      	ldr	r3, [r7, #12]
    341c:	689b      	ldr	r3, [r3, #8]
    341e:	613b      	str	r3, [r7, #16]
  cv = (duty*(mod-0+1)+0)/10000;
    3420:	693b      	ldr	r3, [r7, #16]
    3422:	f103 0301 	add.w	r3, r3, #1
    3426:	687a      	ldr	r2, [r7, #4]
    3428:	fb02 f203 	mul.w	r2, r2, r3
    342c:	f241 7359 	movw	r3, #5977	; 0x1759
    3430:	f2cd 13b7 	movt	r3, #53687	; 0xd1b7
    3434:	fba3 1302 	umull	r1, r3, r3, r2
    3438:	ea4f 3353 	mov.w	r3, r3, lsr #13
    343c:	617b      	str	r3, [r7, #20]
  
  // FTMͨƼĴ 
  // ͨģʽ MSB:MSA-1X, ͨԵѡ  ELSB:ELSA-10
  // ͨģʽ MSB:MSA-1X, ͨԵѡ Ҷ ELSB:ELSA-X1
  ftmx->CONTROLS[chn].CnSC = align;
    343e:	7afb      	ldrb	r3, [r7, #11]
    3440:	f897 2020 	ldrb.w	r2, [r7, #32]
    3444:	68f9      	ldr	r1, [r7, #12]
    3446:	f103 0301 	add.w	r3, r3, #1
    344a:	ea4f 03c3 	mov.w	r3, r3, lsl #3
    344e:	18cb      	adds	r3, r1, r3
    3450:	605a      	str	r2, [r3, #4]
  // FTMֵͨ
  ftmx->CONTROLS[chn].CnV  = cv;
    3452:	7afb      	ldrb	r3, [r7, #11]
    3454:	68fa      	ldr	r2, [r7, #12]
    3456:	f103 0301 	add.w	r3, r3, #1
    345a:	ea4f 03c3 	mov.w	r3, r3, lsl #3
    345e:	18d3      	adds	r3, r2, r3
    3460:	697a      	ldr	r2, [r7, #20]
    3462:	609a      	str	r2, [r3, #8]
  
  return 1;
    3464:	f04f 0301 	mov.w	r3, #1
}
    3468:	4618      	mov	r0, r3
    346a:	f107 0718 	add.w	r7, r7, #24
    346e:	46bd      	mov	sp, r7
    3470:	bd80      	pop	{r7, pc}
    3472:	bf00      	nop

00003474 <LPLD_FTM_PWM_ChangeDuty>:
 * :
 *    0--ô
 *    1--óɹ
 */
uint8 LPLD_FTM_PWM_ChangeDuty(FTM_MemMapPtr  ftmx, FtmChnEnum_Type chn, uint32 duty)
{
    3474:	b480      	push	{r7}
    3476:	b087      	sub	sp, #28
    3478:	af00      	add	r7, sp, #0
    347a:	60f8      	str	r0, [r7, #12]
    347c:	460b      	mov	r3, r1
    347e:	607a      	str	r2, [r7, #4]
    3480:	72fb      	strb	r3, [r7, #11]
  uint32 cv;
  vuint32 mod;
  
  if (duty > 10000)
    3482:	687a      	ldr	r2, [r7, #4]
    3484:	f242 7310 	movw	r3, #10000	; 0x2710
    3488:	429a      	cmp	r2, r3
    348a:	d902      	bls.n	3492 <LPLD_FTM_PWM_ChangeDuty+0x1e>
    return 0;
    348c:	f04f 0300 	mov.w	r3, #0
    3490:	e02e      	b.n	34f0 <LPLD_FTM_PWM_ChangeDuty+0x7c>
  //
  //ASSERT( duty <= 10000 );                  //жռձ
    
  //Ҷ룬100%-ռձ
  if(ftmx->CONTROLS[chn].CnSC & FTM_CnSC_ELSA_MASK)
    3492:	7afb      	ldrb	r3, [r7, #11]
    3494:	68fa      	ldr	r2, [r7, #12]
    3496:	f103 0301 	add.w	r3, r3, #1
    349a:	ea4f 03c3 	mov.w	r3, r3, lsl #3
    349e:	18d3      	adds	r3, r2, r3
    34a0:	685b      	ldr	r3, [r3, #4]
    34a2:	f003 0304 	and.w	r3, r3, #4
    34a6:	2b00      	cmp	r3, #0
    34a8:	d005      	beq.n	34b6 <LPLD_FTM_PWM_ChangeDuty+0x42>
  {
    duty = 10000 - duty;
    34aa:	687b      	ldr	r3, [r7, #4]
    34ac:	f5c3 531c 	rsb	r3, r3, #9984	; 0x2700
    34b0:	f103 0310 	add.w	r3, r3, #16
    34b4:	607b      	str	r3, [r7, #4]
  }
  
  //ռձ = (CnV-CNTIN)/(MOD-CNTIN+1)
  mod = ftmx->MOD;
    34b6:	68fb      	ldr	r3, [r7, #12]
    34b8:	689b      	ldr	r3, [r3, #8]
    34ba:	613b      	str	r3, [r7, #16]
  cv = (duty*(mod-0+1)+0)/10000;
    34bc:	693b      	ldr	r3, [r7, #16]
    34be:	f103 0301 	add.w	r3, r3, #1
    34c2:	687a      	ldr	r2, [r7, #4]
    34c4:	fb02 f203 	mul.w	r2, r2, r3
    34c8:	f241 7359 	movw	r3, #5977	; 0x1759
    34cc:	f2cd 13b7 	movt	r3, #53687	; 0xd1b7
    34d0:	fba3 1302 	umull	r1, r3, r3, r2
    34d4:	ea4f 3353 	mov.w	r3, r3, lsr #13
    34d8:	617b      	str	r3, [r7, #20]
 
  // FTMֵͨ
  ftmx->CONTROLS[chn].CnV = cv;
    34da:	7afb      	ldrb	r3, [r7, #11]
    34dc:	68fa      	ldr	r2, [r7, #12]
    34de:	f103 0301 	add.w	r3, r3, #1
    34e2:	ea4f 03c3 	mov.w	r3, r3, lsl #3
    34e6:	18d3      	adds	r3, r2, r3
    34e8:	697a      	ldr	r2, [r7, #20]
    34ea:	609a      	str	r2, [r3, #8]
  
  return 1;
    34ec:	f04f 0301 	mov.w	r3, #1
}
    34f0:	4618      	mov	r0, r3
    34f2:	f107 071c 	add.w	r7, r7, #28
    34f6:	46bd      	mov	sp, r7
    34f8:	bc80      	pop	{r7}
    34fa:	4770      	bx	lr

000034fc <LPLD_FTM_DisableChn>:
 * :
 *    0--ô
 *    1--óɹ
 */
uint8 LPLD_FTM_DisableChn(FTM_MemMapPtr  ftmx, FtmChnEnum_Type chn)
{
    34fc:	b580      	push	{r7, lr}
    34fe:	b082      	sub	sp, #8
    3500:	af00      	add	r7, sp, #0
    3502:	6078      	str	r0, [r7, #4]
    3504:	460b      	mov	r3, r1
    3506:	70fb      	strb	r3, [r7, #3]
  LPLD_FTM_PinDeinit(ftmx, chn);
    3508:	78fb      	ldrb	r3, [r7, #3]
    350a:	6878      	ldr	r0, [r7, #4]
    350c:	4619      	mov	r1, r3
    350e:	f001 f82f 	bl	4570 <LPLD_FTM_PinDeinit>
  ftmx->CONTROLS[chn].CnSC = 0;
    3512:	78fb      	ldrb	r3, [r7, #3]
    3514:	687a      	ldr	r2, [r7, #4]
    3516:	f103 0301 	add.w	r3, r3, #1
    351a:	ea4f 03c3 	mov.w	r3, r3, lsl #3
    351e:	18d3      	adds	r3, r2, r3
    3520:	f04f 0200 	mov.w	r2, #0
    3524:	605a      	str	r2, [r3, #4]
  ftmx->CONTROLS[chn].CnV  = 0;
    3526:	78fb      	ldrb	r3, [r7, #3]
    3528:	687a      	ldr	r2, [r7, #4]
    352a:	f103 0301 	add.w	r3, r3, #1
    352e:	ea4f 03c3 	mov.w	r3, r3, lsl #3
    3532:	18d3      	adds	r3, r2, r3
    3534:	f04f 0200 	mov.w	r2, #0
    3538:	609a      	str	r2, [r3, #8]
  
  return 1;
    353a:	f04f 0301 	mov.w	r3, #1
}
    353e:	4618      	mov	r0, r3
    3540:	f107 0708 	add.w	r7, r7, #8
    3544:	46bd      	mov	sp, r7
    3546:	bd80      	pop	{r7, pc}

00003548 <LPLD_FTM_IC_Enable>:
 * :
 *    0--ô
 *    1--óɹ
 */
uint8 LPLD_FTM_IC_Enable(FTM_MemMapPtr  ftmx, FtmChnEnum_Type chn, PortPinsEnum_Type pin, uint8 capture_edge)
{
    3548:	b580      	push	{r7, lr}
    354a:	b082      	sub	sp, #8
    354c:	af00      	add	r7, sp, #0
    354e:	6078      	str	r0, [r7, #4]
    3550:	70f9      	strb	r1, [r7, #3]
    3552:	70ba      	strb	r2, [r7, #2]
    3554:	707b      	strb	r3, [r7, #1]
  if(!LPLD_FTM_PinInit(ftmx, chn, pin))
    3556:	78fa      	ldrb	r2, [r7, #3]
    3558:	78bb      	ldrb	r3, [r7, #2]
    355a:	6878      	ldr	r0, [r7, #4]
    355c:	4611      	mov	r1, r2
    355e:	461a      	mov	r2, r3
    3560:	f000 fb68 	bl	3c34 <LPLD_FTM_PinInit>
    3564:	4603      	mov	r3, r0
    3566:	2b00      	cmp	r3, #0
    3568:	d102      	bne.n	3570 <LPLD_FTM_IC_Enable+0x28>
    return 0;
    356a:	f04f 0300 	mov.w	r3, #0
    356e:	e077      	b.n	3660 <LPLD_FTM_IC_Enable+0x118>
  
  ftmx->CONTROLS[chn].CnSC = 0x00;
    3570:	78fb      	ldrb	r3, [r7, #3]
    3572:	687a      	ldr	r2, [r7, #4]
    3574:	f103 0301 	add.w	r3, r3, #1
    3578:	ea4f 03c3 	mov.w	r3, r3, lsl #3
    357c:	18d3      	adds	r3, r2, r3
    357e:	f04f 0200 	mov.w	r2, #0
    3582:	605a      	str	r2, [r3, #4]
  
  ftmx->CONTROLS[chn].CnSC |= capture_edge;        
    3584:	78f8      	ldrb	r0, [r7, #3]
    3586:	78fb      	ldrb	r3, [r7, #3]
    3588:	687a      	ldr	r2, [r7, #4]
    358a:	f103 0301 	add.w	r3, r3, #1
    358e:	ea4f 03c3 	mov.w	r3, r3, lsl #3
    3592:	18d3      	adds	r3, r2, r3
    3594:	685a      	ldr	r2, [r3, #4]
    3596:	787b      	ldrb	r3, [r7, #1]
    3598:	431a      	orrs	r2, r3
    359a:	6879      	ldr	r1, [r7, #4]
    359c:	f100 0301 	add.w	r3, r0, #1
    35a0:	ea4f 03c3 	mov.w	r3, r3, lsl #3
    35a4:	18cb      	adds	r3, r1, r3
    35a6:	605a      	str	r2, [r3, #4]
  
  ftmx->CONTROLS[chn].CnSC &= (~FTM_CnSC_CHF_MASK);
    35a8:	78f8      	ldrb	r0, [r7, #3]
    35aa:	78fb      	ldrb	r3, [r7, #3]
    35ac:	687a      	ldr	r2, [r7, #4]
    35ae:	f103 0301 	add.w	r3, r3, #1
    35b2:	ea4f 03c3 	mov.w	r3, r3, lsl #3
    35b6:	18d3      	adds	r3, r2, r3
    35b8:	685b      	ldr	r3, [r3, #4]
    35ba:	f023 0280 	bic.w	r2, r3, #128	; 0x80
    35be:	6879      	ldr	r1, [r7, #4]
    35c0:	f100 0301 	add.w	r3, r0, #1
    35c4:	ea4f 03c3 	mov.w	r3, r3, lsl #3
    35c8:	18cb      	adds	r3, r1, r3
    35ca:	605a      	str	r2, [r3, #4]
  ftmx->CONTROLS[chn].CnSC |= FTM_CnSC_CHIE_MASK;         //ʹͨж
    35cc:	78f8      	ldrb	r0, [r7, #3]
    35ce:	78fb      	ldrb	r3, [r7, #3]
    35d0:	687a      	ldr	r2, [r7, #4]
    35d2:	f103 0301 	add.w	r3, r3, #1
    35d6:	ea4f 03c3 	mov.w	r3, r3, lsl #3
    35da:	18d3      	adds	r3, r2, r3
    35dc:	685b      	ldr	r3, [r3, #4]
    35de:	f043 0240 	orr.w	r2, r3, #64	; 0x40
    35e2:	6879      	ldr	r1, [r7, #4]
    35e4:	f100 0301 	add.w	r3, r0, #1
    35e8:	ea4f 03c3 	mov.w	r3, r3, lsl #3
    35ec:	18cb      	adds	r3, r1, r3
    35ee:	605a      	str	r2, [r3, #4]
  
  ftmx->CONTROLS[chn].CnSC &= (~FTM_CnSC_MSB_MASK);
    35f0:	78f8      	ldrb	r0, [r7, #3]
    35f2:	78fb      	ldrb	r3, [r7, #3]
    35f4:	687a      	ldr	r2, [r7, #4]
    35f6:	f103 0301 	add.w	r3, r3, #1
    35fa:	ea4f 03c3 	mov.w	r3, r3, lsl #3
    35fe:	18d3      	adds	r3, r2, r3
    3600:	685b      	ldr	r3, [r3, #4]
    3602:	f023 0220 	bic.w	r2, r3, #32
    3606:	6879      	ldr	r1, [r7, #4]
    3608:	f100 0301 	add.w	r3, r0, #1
    360c:	ea4f 03c3 	mov.w	r3, r3, lsl #3
    3610:	18cb      	adds	r3, r1, r3
    3612:	605a      	str	r2, [r3, #4]
  ftmx->CONTROLS[chn].CnSC &= (~FTM_CnSC_MSA_MASK);       //óInput captureģʽ
    3614:	78f8      	ldrb	r0, [r7, #3]
    3616:	78fb      	ldrb	r3, [r7, #3]
    3618:	687a      	ldr	r2, [r7, #4]
    361a:	f103 0301 	add.w	r3, r3, #1
    361e:	ea4f 03c3 	mov.w	r3, r3, lsl #3
    3622:	18d3      	adds	r3, r2, r3
    3624:	685b      	ldr	r3, [r3, #4]
    3626:	f023 0210 	bic.w	r2, r3, #16
    362a:	6879      	ldr	r1, [r7, #4]
    362c:	f100 0301 	add.w	r3, r0, #1
    3630:	ea4f 03c3 	mov.w	r3, r3, lsl #3
    3634:	18cb      	adds	r3, r1, r3
    3636:	605a      	str	r2, [r3, #4]
  
  ftmx->CONTROLS[chn].CnSC &= (~FTM_CnSC_DMA_MASK);       //رDMA
    3638:	78f8      	ldrb	r0, [r7, #3]
    363a:	78fb      	ldrb	r3, [r7, #3]
    363c:	687a      	ldr	r2, [r7, #4]
    363e:	f103 0301 	add.w	r3, r3, #1
    3642:	ea4f 03c3 	mov.w	r3, r3, lsl #3
    3646:	18d3      	adds	r3, r2, r3
    3648:	685b      	ldr	r3, [r3, #4]
    364a:	f023 0201 	bic.w	r2, r3, #1
    364e:	6879      	ldr	r1, [r7, #4]
    3650:	f100 0301 	add.w	r3, r0, #1
    3654:	ea4f 03c3 	mov.w	r3, r3, lsl #3
    3658:	18cb      	adds	r3, r1, r3
    365a:	605a      	str	r2, [r3, #4]
  
  return 1;
    365c:	f04f 0301 	mov.w	r3, #1
}
    3660:	4618      	mov	r0, r3
    3662:	f107 0708 	add.w	r7, r7, #8
    3666:	46bd      	mov	sp, r7
    3668:	bd80      	pop	{r7, pc}
    366a:	bf00      	nop

0000366c <LPLD_FTM_IsTOF>:
 * :
 *    TRUEFALSE
 *
 */
boolean LPLD_FTM_IsTOF(FTM_MemMapPtr  ftmx)
{
    366c:	b480      	push	{r7}
    366e:	b083      	sub	sp, #12
    3670:	af00      	add	r7, sp, #0
    3672:	6078      	str	r0, [r7, #4]
  return (boolean)((ftmx->SC & FTM_SC_TOF_MASK)>>FTM_SC_TOF_SHIFT);
    3674:	687b      	ldr	r3, [r7, #4]
    3676:	681b      	ldr	r3, [r3, #0]
    3678:	f003 0380 	and.w	r3, r3, #128	; 0x80
    367c:	ea4f 13d3 	mov.w	r3, r3, lsr #7
    3680:	b2db      	uxtb	r3, r3
}
    3682:	4618      	mov	r0, r3
    3684:	f107 070c 	add.w	r7, r7, #12
    3688:	46bd      	mov	sp, r7
    368a:	bc80      	pop	{r7}
    368c:	4770      	bx	lr
    368e:	bf00      	nop

00003690 <LPLD_FTM_ClearTOF>:
 * :
 *    
 *
 */
void LPLD_FTM_ClearTOF(FTM_MemMapPtr  ftmx)
{
    3690:	b480      	push	{r7}
    3692:	b083      	sub	sp, #12
    3694:	af00      	add	r7, sp, #0
    3696:	6078      	str	r0, [r7, #4]
  ftmx->SC = ftmx->SC & ~FTM_SC_TOF_MASK;
    3698:	687b      	ldr	r3, [r7, #4]
    369a:	681b      	ldr	r3, [r3, #0]
    369c:	f023 0280 	bic.w	r2, r3, #128	; 0x80
    36a0:	687b      	ldr	r3, [r7, #4]
    36a2:	601a      	str	r2, [r3, #0]
}
    36a4:	f107 070c 	add.w	r7, r7, #12
    36a8:	46bd      	mov	sp, r7
    36aa:	bc80      	pop	{r7}
    36ac:	4770      	bx	lr
    36ae:	bf00      	nop

000036b0 <LPLD_FTM_IsCHnF>:
 * :
 *    TRUEFALSE
 *
 */
boolean LPLD_FTM_IsCHnF(FTM_MemMapPtr  ftmx, FtmChnEnum_Type chn)
{
    36b0:	b480      	push	{r7}
    36b2:	b083      	sub	sp, #12
    36b4:	af00      	add	r7, sp, #0
    36b6:	6078      	str	r0, [r7, #4]
    36b8:	460b      	mov	r3, r1
    36ba:	70fb      	strb	r3, [r7, #3]
  return (boolean)((ftmx->CONTROLS[chn].CnSC & FTM_CnSC_CHF_MASK)>>FTM_CnSC_CHF_SHIFT);
    36bc:	78fb      	ldrb	r3, [r7, #3]
    36be:	687a      	ldr	r2, [r7, #4]
    36c0:	f103 0301 	add.w	r3, r3, #1
    36c4:	ea4f 03c3 	mov.w	r3, r3, lsl #3
    36c8:	18d3      	adds	r3, r2, r3
    36ca:	685b      	ldr	r3, [r3, #4]
    36cc:	f003 0380 	and.w	r3, r3, #128	; 0x80
    36d0:	ea4f 13d3 	mov.w	r3, r3, lsr #7
    36d4:	b2db      	uxtb	r3, r3
}
    36d6:	4618      	mov	r0, r3
    36d8:	f107 070c 	add.w	r7, r7, #12
    36dc:	46bd      	mov	sp, r7
    36de:	bc80      	pop	{r7}
    36e0:	4770      	bx	lr
    36e2:	bf00      	nop

000036e4 <LPLD_FTM_ClearCHnF>:
 * :
 *    
 *
 */
void LPLD_FTM_ClearCHnF(FTM_MemMapPtr  ftmx, FtmChnEnum_Type chn)
{
    36e4:	b480      	push	{r7}
    36e6:	b083      	sub	sp, #12
    36e8:	af00      	add	r7, sp, #0
    36ea:	6078      	str	r0, [r7, #4]
    36ec:	460b      	mov	r3, r1
    36ee:	70fb      	strb	r3, [r7, #3]
  ftmx->CONTROLS[chn].CnSC = ftmx->CONTROLS[chn].CnSC & ~FTM_CnSC_CHF_MASK;
    36f0:	78f8      	ldrb	r0, [r7, #3]
    36f2:	78fb      	ldrb	r3, [r7, #3]
    36f4:	687a      	ldr	r2, [r7, #4]
    36f6:	f103 0301 	add.w	r3, r3, #1
    36fa:	ea4f 03c3 	mov.w	r3, r3, lsl #3
    36fe:	18d3      	adds	r3, r2, r3
    3700:	685b      	ldr	r3, [r3, #4]
    3702:	f023 0280 	bic.w	r2, r3, #128	; 0x80
    3706:	6879      	ldr	r1, [r7, #4]
    3708:	f100 0301 	add.w	r3, r0, #1
    370c:	ea4f 03c3 	mov.w	r3, r3, lsl #3
    3710:	18cb      	adds	r3, r1, r3
    3712:	605a      	str	r2, [r3, #4]
}
    3714:	f107 070c 	add.w	r7, r7, #12
    3718:	46bd      	mov	sp, r7
    371a:	bc80      	pop	{r7}
    371c:	4770      	bx	lr
    371e:	bf00      	nop

00003720 <LPLD_FTM_GetChVal>:
 * :
 *    0x1~0xFFFF
 *
 */
uint16 LPLD_FTM_GetChVal(FTM_MemMapPtr  ftmx, FtmChnEnum_Type chn)
{
    3720:	b480      	push	{r7}
    3722:	b083      	sub	sp, #12
    3724:	af00      	add	r7, sp, #0
    3726:	6078      	str	r0, [r7, #4]
    3728:	460b      	mov	r3, r1
    372a:	70fb      	strb	r3, [r7, #3]
  return ftmx->CONTROLS[chn].CnV;    //ȡӦͨ񵽵FTMֵ
    372c:	78fb      	ldrb	r3, [r7, #3]
    372e:	687a      	ldr	r2, [r7, #4]
    3730:	f103 0301 	add.w	r3, r3, #1
    3734:	ea4f 03c3 	mov.w	r3, r3, lsl #3
    3738:	18d3      	adds	r3, r2, r3
    373a:	689b      	ldr	r3, [r3, #8]
    373c:	b29b      	uxth	r3, r3
}
    373e:	4618      	mov	r0, r3
    3740:	f107 070c 	add.w	r7, r7, #12
    3744:	46bd      	mov	sp, r7
    3746:	bc80      	pop	{r7}
    3748:	4770      	bx	lr
    374a:	bf00      	nop

0000374c <LPLD_FTM_GetClkDiv>:
 * :
 *    1248163264128
 *
 */
uint8 LPLD_FTM_GetClkDiv(FTM_MemMapPtr  ftmx)
{
    374c:	b480      	push	{r7}
    374e:	b083      	sub	sp, #12
    3750:	af00      	add	r7, sp, #0
    3752:	6078      	str	r0, [r7, #4]
  return 1u<<((ftmx->SC & FTM_SC_PS_MASK)>>FTM_SC_PS_SHIFT);    //ʱӷƵϵ
    3754:	687b      	ldr	r3, [r7, #4]
    3756:	681b      	ldr	r3, [r3, #0]
    3758:	f003 0307 	and.w	r3, r3, #7
    375c:	f04f 0201 	mov.w	r2, #1
    3760:	fa02 f303 	lsl.w	r3, r2, r3
    3764:	b2db      	uxtb	r3, r3
}
    3766:	4618      	mov	r0, r3
    3768:	f107 070c 	add.w	r7, r7, #12
    376c:	46bd      	mov	sp, r7
    376e:	bc80      	pop	{r7}
    3770:	4770      	bx	lr
    3772:	bf00      	nop

00003774 <LPLD_FTM_GetCounter>:
 * :
 *    
 *
 */
uint16 LPLD_FTM_GetCounter(FTM_MemMapPtr  ftmx)
{
    3774:	b480      	push	{r7}
    3776:	b083      	sub	sp, #12
    3778:	af00      	add	r7, sp, #0
    377a:	6078      	str	r0, [r7, #4]
  return ftmx->CNT;        //ȡFTMxֵ
    377c:	687b      	ldr	r3, [r7, #4]
    377e:	685b      	ldr	r3, [r3, #4]
    3780:	b29b      	uxth	r3, r3
}
    3782:	4618      	mov	r0, r3
    3784:	f107 070c 	add.w	r7, r7, #12
    3788:	46bd      	mov	sp, r7
    378a:	bc80      	pop	{r7}
    378c:	4770      	bx	lr
    378e:	bf00      	nop

00003790 <LPLD_FTM_ClearCounter>:
 * :
 *    
 *
 */
void LPLD_FTM_ClearCounter(FTM_MemMapPtr  ftmx)
{
    3790:	b480      	push	{r7}
    3792:	b083      	sub	sp, #12
    3794:	af00      	add	r7, sp, #0
    3796:	6078      	str	r0, [r7, #4]
  ftmx->CNT = 0;        //FTMxֵ
    3798:	687b      	ldr	r3, [r7, #4]
    379a:	f04f 0200 	mov.w	r2, #0
    379e:	605a      	str	r2, [r3, #4]
}
    37a0:	f107 070c 	add.w	r7, r7, #12
    37a4:	46bd      	mov	sp, r7
    37a6:	bc80      	pop	{r7}
    37a8:	4770      	bx	lr
    37aa:	bf00      	nop

000037ac <LPLD_FTM_EnableIrq>:
 *    0--ô
 *    1--óɹ
 *
 */
uint8 LPLD_FTM_EnableIrq(FTM_InitTypeDef ftm_init_structure)
{
    37ac:	b084      	sub	sp, #16
    37ae:	b580      	push	{r7, lr}
    37b0:	b082      	sub	sp, #8
    37b2:	af00      	add	r7, sp, #0
    37b4:	f107 0c10 	add.w	ip, r7, #16
    37b8:	e88c 000f 	stmia.w	ip, {r0, r1, r2, r3}
  uint8 i;
  FTM_MemMapPtr  ftmx = ftm_init_structure.FTM_Ftmx;
    37bc:	693b      	ldr	r3, [r7, #16]
    37be:	603b      	str	r3, [r7, #0]
  
  if(ftmx == FTM0)
    37c0:	683a      	ldr	r2, [r7, #0]
    37c2:	f44f 4300 	mov.w	r3, #32768	; 0x8000
    37c6:	f2c4 0303 	movt	r3, #16387	; 0x4003
    37ca:	429a      	cmp	r2, r3
    37cc:	d103      	bne.n	37d6 <LPLD_FTM_EnableIrq+0x2a>
    i=0;
    37ce:	f04f 0300 	mov.w	r3, #0
    37d2:	71fb      	strb	r3, [r7, #7]
    37d4:	e023      	b.n	381e <LPLD_FTM_EnableIrq+0x72>
  else if(ftmx == FTM1)
    37d6:	683a      	ldr	r2, [r7, #0]
    37d8:	f44f 4310 	mov.w	r3, #36864	; 0x9000
    37dc:	f2c4 0303 	movt	r3, #16387	; 0x4003
    37e0:	429a      	cmp	r2, r3
    37e2:	d103      	bne.n	37ec <LPLD_FTM_EnableIrq+0x40>
    i=1;
    37e4:	f04f 0301 	mov.w	r3, #1
    37e8:	71fb      	strb	r3, [r7, #7]
    37ea:	e018      	b.n	381e <LPLD_FTM_EnableIrq+0x72>
  else if(ftmx == FTM2)
    37ec:	683a      	ldr	r2, [r7, #0]
    37ee:	f44f 4300 	mov.w	r3, #32768	; 0x8000
    37f2:	f2c4 030b 	movt	r3, #16395	; 0x400b
    37f6:	429a      	cmp	r2, r3
    37f8:	d103      	bne.n	3802 <LPLD_FTM_EnableIrq+0x56>
    i=2;
    37fa:	f04f 0302 	mov.w	r3, #2
    37fe:	71fb      	strb	r3, [r7, #7]
    3800:	e00d      	b.n	381e <LPLD_FTM_EnableIrq+0x72>
  else if (ftmx == FTM3)
    3802:	683a      	ldr	r2, [r7, #0]
    3804:	f44f 4310 	mov.w	r3, #36864	; 0x9000
    3808:	f2c4 030b 	movt	r3, #16395	; 0x400b
    380c:	429a      	cmp	r2, r3
    380e:	d103      	bne.n	3818 <LPLD_FTM_EnableIrq+0x6c>
    i = 3;
    3810:	f04f 0303 	mov.w	r3, #3
    3814:	71fb      	strb	r3, [r7, #7]
    3816:	e002      	b.n	381e <LPLD_FTM_EnableIrq+0x72>
  else
    return 0;
    3818:	f04f 0300 	mov.w	r3, #0
    381c:	e007      	b.n	382e <LPLD_FTM_EnableIrq+0x82>

  enable_irq(62 + i);
    381e:	79fb      	ldrb	r3, [r7, #7]
    3820:	f103 033e 	add.w	r3, r3, #62	; 0x3e
    3824:	4618      	mov	r0, r3
    3826:	f7fd f973 	bl	b10 <enable_irq>
  
  return 1;
    382a:	f04f 0301 	mov.w	r3, #1
}
    382e:	4618      	mov	r0, r3
    3830:	f107 0708 	add.w	r7, r7, #8
    3834:	46bd      	mov	sp, r7
    3836:	e8bd 4080 	ldmia.w	sp!, {r7, lr}
    383a:	b004      	add	sp, #16
    383c:	4770      	bx	lr
    383e:	bf00      	nop

00003840 <LPLD_FTM_DisableIrq>:
 *    0--ô
 *    1--óɹ
 *
 */
uint8 LPLD_FTM_DisableIrq(FTM_InitTypeDef ftm_init_structure)
{
    3840:	b084      	sub	sp, #16
    3842:	b580      	push	{r7, lr}
    3844:	b082      	sub	sp, #8
    3846:	af00      	add	r7, sp, #0
    3848:	f107 0c10 	add.w	ip, r7, #16
    384c:	e88c 000f 	stmia.w	ip, {r0, r1, r2, r3}
  uint8 i;
  FTM_MemMapPtr  ftmx = ftm_init_structure.FTM_Ftmx;
    3850:	693b      	ldr	r3, [r7, #16]
    3852:	603b      	str	r3, [r7, #0]
  
  if(ftmx == FTM0)
    3854:	683a      	ldr	r2, [r7, #0]
    3856:	f44f 4300 	mov.w	r3, #32768	; 0x8000
    385a:	f2c4 0303 	movt	r3, #16387	; 0x4003
    385e:	429a      	cmp	r2, r3
    3860:	d103      	bne.n	386a <LPLD_FTM_DisableIrq+0x2a>
    i=0;
    3862:	f04f 0300 	mov.w	r3, #0
    3866:	71fb      	strb	r3, [r7, #7]
    3868:	e023      	b.n	38b2 <LPLD_FTM_DisableIrq+0x72>
  else if(ftmx == FTM1)
    386a:	683a      	ldr	r2, [r7, #0]
    386c:	f44f 4310 	mov.w	r3, #36864	; 0x9000
    3870:	f2c4 0303 	movt	r3, #16387	; 0x4003
    3874:	429a      	cmp	r2, r3
    3876:	d103      	bne.n	3880 <LPLD_FTM_DisableIrq+0x40>
    i=1;
    3878:	f04f 0301 	mov.w	r3, #1
    387c:	71fb      	strb	r3, [r7, #7]
    387e:	e018      	b.n	38b2 <LPLD_FTM_DisableIrq+0x72>
  else if(ftmx == FTM2)
    3880:	683a      	ldr	r2, [r7, #0]
    3882:	f44f 4300 	mov.w	r3, #32768	; 0x8000
    3886:	f2c4 030b 	movt	r3, #16395	; 0x400b
    388a:	429a      	cmp	r2, r3
    388c:	d103      	bne.n	3896 <LPLD_FTM_DisableIrq+0x56>
    i=2;
    388e:	f04f 0302 	mov.w	r3, #2
    3892:	71fb      	strb	r3, [r7, #7]
    3894:	e00d      	b.n	38b2 <LPLD_FTM_DisableIrq+0x72>
  else if (ftmx == FTM3)
    3896:	683a      	ldr	r2, [r7, #0]
    3898:	f44f 4310 	mov.w	r3, #36864	; 0x9000
    389c:	f2c4 030b 	movt	r3, #16395	; 0x400b
    38a0:	429a      	cmp	r2, r3
    38a2:	d103      	bne.n	38ac <LPLD_FTM_DisableIrq+0x6c>
      i = 3;
    38a4:	f04f 0303 	mov.w	r3, #3
    38a8:	71fb      	strb	r3, [r7, #7]
    38aa:	e002      	b.n	38b2 <LPLD_FTM_DisableIrq+0x72>
  else
    return 0;
    38ac:	f04f 0300 	mov.w	r3, #0
    38b0:	e007      	b.n	38c2 <LPLD_FTM_DisableIrq+0x82>

  disable_irq(62 + i);
    38b2:	79fb      	ldrb	r3, [r7, #7]
    38b4:	f103 033e 	add.w	r3, r3, #62	; 0x3e
    38b8:	4618      	mov	r0, r3
    38ba:	f7fd f9ed 	bl	c98 <disable_irq>
  
  return 1;
    38be:	f04f 0301 	mov.w	r3, #1
}
    38c2:	4618      	mov	r0, r3
    38c4:	f107 0708 	add.w	r7, r7, #8
    38c8:	46bd      	mov	sp, r7
    38ca:	e8bd 4080 	ldmia.w	sp!, {r7, lr}
    38ce:	b004      	add	sp, #16
    38d0:	4770      	bx	lr
    38d2:	bf00      	nop

000038d4 <LPLD_FTM_QD_Enable>:
 * :
 *    0--ô
 *    1--óɹ
 */
uint8 LPLD_FTM_QD_Enable(FTM_MemMapPtr  ftmx, PortPinsEnum_Type pha, PortPinsEnum_Type phb)
{
    38d4:	b580      	push	{r7, lr}
    38d6:	b082      	sub	sp, #8
    38d8:	af00      	add	r7, sp, #0
    38da:	6078      	str	r0, [r7, #4]
    38dc:	4613      	mov	r3, r2
    38de:	460a      	mov	r2, r1
    38e0:	70fa      	strb	r2, [r7, #3]
    38e2:	70bb      	strb	r3, [r7, #2]
  if(!LPLD_FTM_PinInit(ftmx, FTM_PhA, pha))
    38e4:	78fb      	ldrb	r3, [r7, #3]
    38e6:	6878      	ldr	r0, [r7, #4]
    38e8:	f04f 0108 	mov.w	r1, #8
    38ec:	461a      	mov	r2, r3
    38ee:	f000 f9a1 	bl	3c34 <LPLD_FTM_PinInit>
    38f2:	4603      	mov	r3, r0
    38f4:	2b00      	cmp	r3, #0
    38f6:	d102      	bne.n	38fe <LPLD_FTM_QD_Enable+0x2a>
    return 0;
    38f8:	f04f 0300 	mov.w	r3, #0
    38fc:	e00e      	b.n	391c <LPLD_FTM_QD_Enable+0x48>
  if(!LPLD_FTM_PinInit(ftmx, FTM_PhB, phb))
    38fe:	78bb      	ldrb	r3, [r7, #2]
    3900:	6878      	ldr	r0, [r7, #4]
    3902:	f04f 0109 	mov.w	r1, #9
    3906:	461a      	mov	r2, r3
    3908:	f000 f994 	bl	3c34 <LPLD_FTM_PinInit>
    390c:	4603      	mov	r3, r0
    390e:	2b00      	cmp	r3, #0
    3910:	d102      	bne.n	3918 <LPLD_FTM_QD_Enable+0x44>
    return 0;
    3912:	f04f 0300 	mov.w	r3, #0
    3916:	e001      	b.n	391c <LPLD_FTM_QD_Enable+0x48>
  
  return 1;
    3918:	f04f 0301 	mov.w	r3, #1
}
    391c:	4618      	mov	r0, r3
    391e:	f107 0708 	add.w	r7, r7, #8
    3922:	46bd      	mov	sp, r7
    3924:	bd80      	pop	{r7, pc}
    3926:	bf00      	nop

00003928 <LPLD_FTM_QD_Disable>:
 * :
 *    0--ô
 *    1--óɹ
 */
uint8 LPLD_FTM_QD_Disable(FTM_MemMapPtr  ftmx)
{
    3928:	b580      	push	{r7, lr}
    392a:	b082      	sub	sp, #8
    392c:	af00      	add	r7, sp, #0
    392e:	6078      	str	r0, [r7, #4]
  if(!LPLD_FTM_PinDeinit(ftmx, FTM_PhA))
    3930:	6878      	ldr	r0, [r7, #4]
    3932:	f04f 0108 	mov.w	r1, #8
    3936:	f000 fe1b 	bl	4570 <LPLD_FTM_PinDeinit>
    393a:	4603      	mov	r3, r0
    393c:	2b00      	cmp	r3, #0
    393e:	d102      	bne.n	3946 <LPLD_FTM_QD_Disable+0x1e>
    return 0;
    3940:	f04f 0300 	mov.w	r3, #0
    3944:	e00c      	b.n	3960 <LPLD_FTM_QD_Disable+0x38>
  if(!LPLD_FTM_PinDeinit(ftmx, FTM_PhB))
    3946:	6878      	ldr	r0, [r7, #4]
    3948:	f04f 0109 	mov.w	r1, #9
    394c:	f000 fe10 	bl	4570 <LPLD_FTM_PinDeinit>
    3950:	4603      	mov	r3, r0
    3952:	2b00      	cmp	r3, #0
    3954:	d102      	bne.n	395c <LPLD_FTM_QD_Disable+0x34>
    return 0;
    3956:	f04f 0300 	mov.w	r3, #0
    395a:	e001      	b.n	3960 <LPLD_FTM_QD_Disable+0x38>
  
  return 1;
    395c:	f04f 0301 	mov.w	r3, #1
}
    3960:	4618      	mov	r0, r3
    3962:	f107 0708 	add.w	r7, r7, #8
    3966:	46bd      	mov	sp, r7
    3968:	bd80      	pop	{r7, pc}
    396a:	bf00      	nop

0000396c <LPLD_FTM_PWM_Init>:
/*
 * LPLD_FTM_PWM_Init
 * FTMģPWMģʽʼڲ
 */
static uint8 LPLD_FTM_PWM_Init(FTM_InitTypeDef ftm_init_structure)
{
    396c:	b084      	sub	sp, #16
    396e:	b480      	push	{r7}
    3970:	b089      	sub	sp, #36	; 0x24
    3972:	af00      	add	r7, sp, #0
    3974:	f107 0c28 	add.w	ip, r7, #40	; 0x28
    3978:	e88c 000f 	stmia.w	ip, {r0, r1, r2, r3}
  uint32 bus_clk_hz;
  uint32 mod, mod2;
  uint8 ps;
  uint32 freq = ftm_init_structure.FTM_PwmFreq;
    397c:	6b3b      	ldr	r3, [r7, #48]	; 0x30
    397e:	617b      	str	r3, [r7, #20]
  uint32 dt_en = ftm_init_structure.FTM_PwmDeadtimeCfg;
    3980:	6b7b      	ldr	r3, [r7, #52]	; 0x34
    3982:	613b      	str	r3, [r7, #16]
  uint8 dt_div = ftm_init_structure.FTM_PwmDeadtimeDiv;
    3984:	f897 3038 	ldrb.w	r3, [r7, #56]	; 0x38
    3988:	73fb      	strb	r3, [r7, #15]
  uint8 dt_val = ftm_init_structure.FTM_PwmDeadtimeVal;
    398a:	f897 3039 	ldrb.w	r3, [r7, #57]	; 0x39
    398e:	73bb      	strb	r3, [r7, #14]
  FTM_MemMapPtr ftmx = ftm_init_structure.FTM_Ftmx;
    3990:	6abb      	ldr	r3, [r7, #40]	; 0x28
    3992:	60bb      	str	r3, [r7, #8]
  
  //
  //ASSERT( freq );                  //жƵ
  //ASSERT( dt_val<=63 );            //жֵ
  if (dt_val > 63)
    3994:	7bbb      	ldrb	r3, [r7, #14]
    3996:	2b3f      	cmp	r3, #63	; 0x3f
    3998:	d902      	bls.n	39a0 <LPLD_FTM_PWM_Init+0x34>
    return 0;
    399a:	f04f 0300 	mov.w	r3, #0
    399e:	e0bb      	b.n	3b18 <LPLD_FTM_PWM_Init+0x1ac>
  
  bus_clk_hz = g_bus_clock;
    39a0:	f240 036c 	movw	r3, #108	; 0x6c
    39a4:	f6c1 73ff 	movt	r3, #8191	; 0x1fff
    39a8:	681b      	ldr	r3, [r3, #0]
    39aa:	607b      	str	r3, [r7, #4]
  
  if(freq>bus_clk_hz) return 0;
    39ac:	697a      	ldr	r2, [r7, #20]
    39ae:	687b      	ldr	r3, [r7, #4]
    39b0:	429a      	cmp	r2, r3
    39b2:	d902      	bls.n	39ba <LPLD_FTM_PWM_Init+0x4e>
    39b4:	f04f 0300 	mov.w	r3, #0
    39b8:	e0ae      	b.n	3b18 <LPLD_FTM_PWM_Init+0x1ac>
 //δдıȽȤ... 
  if((mod=bus_clk_hz/(freq*128)) < 0xFFFFu)
    39ba:	697b      	ldr	r3, [r7, #20]
    39bc:	ea4f 13c3 	mov.w	r3, r3, lsl #7
    39c0:	687a      	ldr	r2, [r7, #4]
    39c2:	fbb2 f3f3 	udiv	r3, r2, r3
    39c6:	603b      	str	r3, [r7, #0]
    39c8:	683a      	ldr	r2, [r7, #0]
    39ca:	f64f 73fe 	movw	r3, #65534	; 0xfffe
    39ce:	429a      	cmp	r2, r3
    39d0:	d87a      	bhi.n	3ac8 <LPLD_FTM_PWM_Init+0x15c>
  {
    ps = 7;
    39d2:	f04f 0307 	mov.w	r3, #7
    39d6:	76fb      	strb	r3, [r7, #27]
    mod2=mod;
    39d8:	683b      	ldr	r3, [r7, #0]
    39da:	61fb      	str	r3, [r7, #28]
    if((mod=bus_clk_hz/(freq*64)) < 0xFFFFu)
    39dc:	697b      	ldr	r3, [r7, #20]
    39de:	ea4f 1383 	mov.w	r3, r3, lsl #6
    39e2:	687a      	ldr	r2, [r7, #4]
    39e4:	fbb2 f3f3 	udiv	r3, r2, r3
    39e8:	603b      	str	r3, [r7, #0]
    39ea:	683a      	ldr	r2, [r7, #0]
    39ec:	f64f 73fe 	movw	r3, #65534	; 0xfffe
    39f0:	429a      	cmp	r2, r3
    39f2:	d86c      	bhi.n	3ace <LPLD_FTM_PWM_Init+0x162>
    {
      ps = 6;  
    39f4:	f04f 0306 	mov.w	r3, #6
    39f8:	76fb      	strb	r3, [r7, #27]
      mod2=mod;  
    39fa:	683b      	ldr	r3, [r7, #0]
    39fc:	61fb      	str	r3, [r7, #28]
      if((mod=bus_clk_hz/(freq*32)) < 0xFFFFu)
    39fe:	697b      	ldr	r3, [r7, #20]
    3a00:	ea4f 1343 	mov.w	r3, r3, lsl #5
    3a04:	687a      	ldr	r2, [r7, #4]
    3a06:	fbb2 f3f3 	udiv	r3, r2, r3
    3a0a:	603b      	str	r3, [r7, #0]
    3a0c:	683a      	ldr	r2, [r7, #0]
    3a0e:	f64f 73fe 	movw	r3, #65534	; 0xfffe
    3a12:	429a      	cmp	r2, r3
    3a14:	d85b      	bhi.n	3ace <LPLD_FTM_PWM_Init+0x162>
      {
        ps = 5;  
    3a16:	f04f 0305 	mov.w	r3, #5
    3a1a:	76fb      	strb	r3, [r7, #27]
        mod2=mod;
    3a1c:	683b      	ldr	r3, [r7, #0]
    3a1e:	61fb      	str	r3, [r7, #28]
        if((mod=bus_clk_hz/(freq*16)) < 0xFFFFu)
    3a20:	697b      	ldr	r3, [r7, #20]
    3a22:	ea4f 1303 	mov.w	r3, r3, lsl #4
    3a26:	687a      	ldr	r2, [r7, #4]
    3a28:	fbb2 f3f3 	udiv	r3, r2, r3
    3a2c:	603b      	str	r3, [r7, #0]
    3a2e:	683a      	ldr	r2, [r7, #0]
    3a30:	f64f 73fe 	movw	r3, #65534	; 0xfffe
    3a34:	429a      	cmp	r2, r3
    3a36:	d84a      	bhi.n	3ace <LPLD_FTM_PWM_Init+0x162>
        {
          ps = 4;  
    3a38:	f04f 0304 	mov.w	r3, #4
    3a3c:	76fb      	strb	r3, [r7, #27]
          mod2=mod;   
    3a3e:	683b      	ldr	r3, [r7, #0]
    3a40:	61fb      	str	r3, [r7, #28]
          if((mod=bus_clk_hz/(freq*8)) < 0xFFFFu)
    3a42:	697b      	ldr	r3, [r7, #20]
    3a44:	ea4f 03c3 	mov.w	r3, r3, lsl #3
    3a48:	687a      	ldr	r2, [r7, #4]
    3a4a:	fbb2 f3f3 	udiv	r3, r2, r3
    3a4e:	603b      	str	r3, [r7, #0]
    3a50:	683a      	ldr	r2, [r7, #0]
    3a52:	f64f 73fe 	movw	r3, #65534	; 0xfffe
    3a56:	429a      	cmp	r2, r3
    3a58:	d839      	bhi.n	3ace <LPLD_FTM_PWM_Init+0x162>
          {
            ps = 3;
    3a5a:	f04f 0303 	mov.w	r3, #3
    3a5e:	76fb      	strb	r3, [r7, #27]
            mod2=mod;
    3a60:	683b      	ldr	r3, [r7, #0]
    3a62:	61fb      	str	r3, [r7, #28]
            if((mod=bus_clk_hz/(freq*4)) < 0xFFFFu)
    3a64:	697b      	ldr	r3, [r7, #20]
    3a66:	ea4f 0383 	mov.w	r3, r3, lsl #2
    3a6a:	687a      	ldr	r2, [r7, #4]
    3a6c:	fbb2 f3f3 	udiv	r3, r2, r3
    3a70:	603b      	str	r3, [r7, #0]
    3a72:	683a      	ldr	r2, [r7, #0]
    3a74:	f64f 73fe 	movw	r3, #65534	; 0xfffe
    3a78:	429a      	cmp	r2, r3
    3a7a:	d828      	bhi.n	3ace <LPLD_FTM_PWM_Init+0x162>
            {
              ps = 2;
    3a7c:	f04f 0302 	mov.w	r3, #2
    3a80:	76fb      	strb	r3, [r7, #27]
              mod2=mod;
    3a82:	683b      	ldr	r3, [r7, #0]
    3a84:	61fb      	str	r3, [r7, #28]
              if((mod=bus_clk_hz/(freq*2)) < 0xFFFFu)
    3a86:	697b      	ldr	r3, [r7, #20]
    3a88:	ea4f 0343 	mov.w	r3, r3, lsl #1
    3a8c:	687a      	ldr	r2, [r7, #4]
    3a8e:	fbb2 f3f3 	udiv	r3, r2, r3
    3a92:	603b      	str	r3, [r7, #0]
    3a94:	683a      	ldr	r2, [r7, #0]
    3a96:	f64f 73fe 	movw	r3, #65534	; 0xfffe
    3a9a:	429a      	cmp	r2, r3
    3a9c:	d817      	bhi.n	3ace <LPLD_FTM_PWM_Init+0x162>
              {
                ps = 1;
    3a9e:	f04f 0301 	mov.w	r3, #1
    3aa2:	76fb      	strb	r3, [r7, #27]
                mod2=mod;
    3aa4:	683b      	ldr	r3, [r7, #0]
    3aa6:	61fb      	str	r3, [r7, #28]
                if((mod=bus_clk_hz/(freq*1)) < 0xFFFFu)
    3aa8:	687a      	ldr	r2, [r7, #4]
    3aaa:	697b      	ldr	r3, [r7, #20]
    3aac:	fbb2 f3f3 	udiv	r3, r2, r3
    3ab0:	603b      	str	r3, [r7, #0]
    3ab2:	683a      	ldr	r2, [r7, #0]
    3ab4:	f64f 73fe 	movw	r3, #65534	; 0xfffe
    3ab8:	429a      	cmp	r2, r3
    3aba:	d808      	bhi.n	3ace <LPLD_FTM_PWM_Init+0x162>
                {
                  ps = 0;
    3abc:	f04f 0300 	mov.w	r3, #0
    3ac0:	76fb      	strb	r3, [r7, #27]
                  mod2=mod;
    3ac2:	683b      	ldr	r3, [r7, #0]
    3ac4:	61fb      	str	r3, [r7, #28]
    3ac6:	e002      	b.n	3ace <LPLD_FTM_PWM_Init+0x162>
      }
    }
  }
  else
  {
    return 0;
    3ac8:	f04f 0300 	mov.w	r3, #0
    3acc:	e024      	b.n	3b18 <LPLD_FTM_PWM_Init+0x1ac>
  }
  
  ftmx->SC = 0;
    3ace:	68bb      	ldr	r3, [r7, #8]
    3ad0:	f04f 0200 	mov.w	r2, #0
    3ad4:	601a      	str	r2, [r3, #0]
  
  // PWMڼռձ
  //    PWM = (MOD-CNTIN+1)*FTMʱ :
  // FTMʼֵ
  ftmx->CNT = 0;
    3ad6:	68bb      	ldr	r3, [r7, #8]
    3ad8:	f04f 0200 	mov.w	r2, #0
    3adc:	605a      	str	r2, [r3, #4]
  ftmx->CNTIN = 0;
    3ade:	68bb      	ldr	r3, [r7, #8]
    3ae0:	f04f 0200 	mov.w	r2, #0
    3ae4:	64da      	str	r2, [r3, #76]	; 0x4c
  // FTMMODֵ
  ftmx->MOD = mod2;
    3ae6:	68bb      	ldr	r3, [r7, #8]
    3ae8:	69fa      	ldr	r2, [r7, #28]
    3aea:	609a      	str	r2, [r3, #8]
  
  ftmx->DEADTIME = FTM_DEADTIME_DTPS(dt_div) | FTM_DEADTIME_DTVAL(dt_val);
    3aec:	7bfb      	ldrb	r3, [r7, #15]
    3aee:	ea4f 1383 	mov.w	r3, r3, lsl #6
    3af2:	b2da      	uxtb	r2, r3
    3af4:	7bbb      	ldrb	r3, [r7, #14]
    3af6:	f003 033f 	and.w	r3, r3, #63	; 0x3f
    3afa:	431a      	orrs	r2, r3
    3afc:	68bb      	ldr	r3, [r7, #8]
    3afe:	669a      	str	r2, [r3, #104]	; 0x68
  ftmx->COMBINE = dt_en;        //ʹ
    3b00:	68bb      	ldr	r3, [r7, #8]
    3b02:	693a      	ldr	r2, [r7, #16]
    3b04:	665a      	str	r2, [r3, #100]	; 0x64
  
  // FTMƼĴ
  // ж, Ӽģʽ, ʱԴ:System clockBus Clk, Ƶϵ:8
  // SysClk = 50MHz, SC_PS=3, FTM Clk = 50MHz/2^3 = 6.25MHz
  ftmx->SC = FTM_SC_CLKS(1)|FTM_SC_PS(ps);
    3b06:	7efb      	ldrb	r3, [r7, #27]
    3b08:	f003 0307 	and.w	r3, r3, #7
    3b0c:	f043 0208 	orr.w	r2, r3, #8
    3b10:	68bb      	ldr	r3, [r7, #8]
    3b12:	601a      	str	r2, [r3, #0]
  
  return 1;
    3b14:	f04f 0301 	mov.w	r3, #1
}
    3b18:	4618      	mov	r0, r3
    3b1a:	f107 0724 	add.w	r7, r7, #36	; 0x24
    3b1e:	46bd      	mov	sp, r7
    3b20:	bc80      	pop	{r7}
    3b22:	b004      	add	sp, #16
    3b24:	4770      	bx	lr
    3b26:	bf00      	nop

00003b28 <LPLD_FTM_IC_Init>:
/*
 * LPLD_FTM_IC_Init
 * FTMģ벶ģʽʼڲ
 */
static uint8 LPLD_FTM_IC_Init(FTM_InitTypeDef ftm_init_structure)
{
    3b28:	b084      	sub	sp, #16
    3b2a:	b480      	push	{r7}
    3b2c:	b085      	sub	sp, #20
    3b2e:	af00      	add	r7, sp, #0
    3b30:	f107 0c18 	add.w	ip, r7, #24
    3b34:	e88c 000f 	stmia.w	ip, {r0, r1, r2, r3}
  uint8 i;
  uint8 ps = ftm_init_structure.FTM_ClkDiv;
    3b38:	f897 302b 	ldrb.w	r3, [r7, #43]	; 0x2b
    3b3c:	73bb      	strb	r3, [r7, #14]
  FTM_ISR_CALLBACK isr_func = ftm_init_structure.FTM_Isr;
    3b3e:	6b3b      	ldr	r3, [r7, #48]	; 0x30
    3b40:	60bb      	str	r3, [r7, #8]
  FTM_MemMapPtr  ftmx = ftm_init_structure.FTM_Ftmx;
    3b42:	69bb      	ldr	r3, [r7, #24]
    3b44:	607b      	str	r3, [r7, #4]
  
  //
  //ASSERT( ps <= 7);             //ʱӷƵϵ
  
  if (ps > 7)
    3b46:	7bbb      	ldrb	r3, [r7, #14]
    3b48:	2b07      	cmp	r3, #7
    3b4a:	d902      	bls.n	3b52 <LPLD_FTM_IC_Init+0x2a>
    return 0;
    3b4c:	f04f 0300 	mov.w	r3, #0
    3b50:	e069      	b.n	3c26 <LPLD_FTM_IC_Init+0xfe>
  ftmx->CONF=FTM_CONF_BDMMODE(0x3);
    3b52:	687b      	ldr	r3, [r7, #4]
    3b54:	f04f 02c0 	mov.w	r2, #192	; 0xc0
    3b58:	f8c3 2084 	str.w	r2, [r3, #132]	; 0x84
  
  ftmx->SC = 0;
    3b5c:	687b      	ldr	r3, [r7, #4]
    3b5e:	f04f 0200 	mov.w	r2, #0
    3b62:	601a      	str	r2, [r3, #0]
  
  ftmx->CNT = 0;
    3b64:	687b      	ldr	r3, [r7, #4]
    3b66:	f04f 0200 	mov.w	r2, #0
    3b6a:	605a      	str	r2, [r3, #4]
  ftmx->CNTIN = 0;
    3b6c:	687b      	ldr	r3, [r7, #4]
    3b6e:	f04f 0200 	mov.w	r2, #0
    3b72:	64da      	str	r2, [r3, #76]	; 0x4c
  ftmx->MOD = 0;                           
    3b74:	687b      	ldr	r3, [r7, #4]
    3b76:	f04f 0200 	mov.w	r2, #0
    3b7a:	609a      	str	r2, [r3, #8]
  ftmx->QDCTRL = (~FTM_QDCTRL_QUADEN_MASK); //ر
    3b7c:	687b      	ldr	r3, [r7, #4]
    3b7e:	f06f 0201 	mvn.w	r2, #1
    3b82:	f8c3 2080 	str.w	r2, [r3, #128]	; 0x80
  ftmx->FILTER = 0x00;                      //ع
    3b86:	687b      	ldr	r3, [r7, #4]
    3b88:	f04f 0200 	mov.w	r2, #0
    3b8c:	679a      	str	r2, [r3, #120]	; 0x78
  
  // FTMƼĴ
  // FTM CounteróFree Counter
  // ж, Ӽģʽ, ʱԴ:System clockBus Clk, Ƶϵ:PS
  // SysClk = 50MHz, SC_PS=3, FTM Clk = 50MHz/2^3 = 6.25MHz
  ftmx->SC |= FTM_SC_CLKS(1)|FTM_SC_PS(ps);
    3b8e:	687b      	ldr	r3, [r7, #4]
    3b90:	681a      	ldr	r2, [r3, #0]
    3b92:	7bbb      	ldrb	r3, [r7, #14]
    3b94:	f003 0307 	and.w	r3, r3, #7
    3b98:	4313      	orrs	r3, r2
    3b9a:	f043 0208 	orr.w	r2, r3, #8
    3b9e:	687b      	ldr	r3, [r7, #4]
    3ba0:	601a      	str	r2, [r3, #0]
  //ftmx->SC |= FTM_SC_TOIE_MASK;             //ʹܼж
  ftmx->SC &= (~FTM_SC_CPWMS_MASK);         //FTMӼ
    3ba2:	687b      	ldr	r3, [r7, #4]
    3ba4:	681b      	ldr	r3, [r3, #0]
    3ba6:	f023 0220 	bic.w	r2, r3, #32
    3baa:	687b      	ldr	r3, [r7, #4]
    3bac:	601a      	str	r2, [r3, #0]

  //жϺڵַж
  if(isr_func!=NULL)
    3bae:	68bb      	ldr	r3, [r7, #8]
    3bb0:	2b00      	cmp	r3, #0
    3bb2:	d036      	beq.n	3c22 <LPLD_FTM_IC_Init+0xfa>
  {
    if(ftmx == FTM0)
    3bb4:	687a      	ldr	r2, [r7, #4]
    3bb6:	f44f 4300 	mov.w	r3, #32768	; 0x8000
    3bba:	f2c4 0303 	movt	r3, #16387	; 0x4003
    3bbe:	429a      	cmp	r2, r3
    3bc0:	d103      	bne.n	3bca <LPLD_FTM_IC_Init+0xa2>
      i=0;
    3bc2:	f04f 0300 	mov.w	r3, #0
    3bc6:	73fb      	strb	r3, [r7, #15]
    3bc8:	e023      	b.n	3c12 <LPLD_FTM_IC_Init+0xea>
    else if(ftmx == FTM1)
    3bca:	687a      	ldr	r2, [r7, #4]
    3bcc:	f44f 4310 	mov.w	r3, #36864	; 0x9000
    3bd0:	f2c4 0303 	movt	r3, #16387	; 0x4003
    3bd4:	429a      	cmp	r2, r3
    3bd6:	d103      	bne.n	3be0 <LPLD_FTM_IC_Init+0xb8>
      i=1;
    3bd8:	f04f 0301 	mov.w	r3, #1
    3bdc:	73fb      	strb	r3, [r7, #15]
    3bde:	e018      	b.n	3c12 <LPLD_FTM_IC_Init+0xea>
    else if(ftmx == FTM2)
    3be0:	687a      	ldr	r2, [r7, #4]
    3be2:	f44f 4300 	mov.w	r3, #32768	; 0x8000
    3be6:	f2c4 030b 	movt	r3, #16395	; 0x400b
    3bea:	429a      	cmp	r2, r3
    3bec:	d103      	bne.n	3bf6 <LPLD_FTM_IC_Init+0xce>
      i=2;
    3bee:	f04f 0302 	mov.w	r3, #2
    3bf2:	73fb      	strb	r3, [r7, #15]
    3bf4:	e00d      	b.n	3c12 <LPLD_FTM_IC_Init+0xea>
    else if (ftmx == FTM3)
    3bf6:	687a      	ldr	r2, [r7, #4]
    3bf8:	f44f 4310 	mov.w	r3, #36864	; 0x9000
    3bfc:	f2c4 030b 	movt	r3, #16395	; 0x400b
    3c00:	429a      	cmp	r2, r3
    3c02:	d103      	bne.n	3c0c <LPLD_FTM_IC_Init+0xe4>
        i = 3;
    3c04:	f04f 0303 	mov.w	r3, #3
    3c08:	73fb      	strb	r3, [r7, #15]
    3c0a:	e002      	b.n	3c12 <LPLD_FTM_IC_Init+0xea>
    else
      return 0;
    3c0c:	f04f 0300 	mov.w	r3, #0
    3c10:	e009      	b.n	3c26 <LPLD_FTM_IC_Init+0xfe>
    FTM_ISR[i] = isr_func;
    3c12:	7bfa      	ldrb	r2, [r7, #15]
    3c14:	f241 6344 	movw	r3, #5700	; 0x1644
    3c18:	f6c1 73ff 	movt	r3, #8191	; 0x1fff
    3c1c:	68b9      	ldr	r1, [r7, #8]
    3c1e:	f843 1022 	str.w	r1, [r3, r2, lsl #2]
  }

  return 1;
    3c22:	f04f 0301 	mov.w	r3, #1
}
    3c26:	4618      	mov	r0, r3
    3c28:	f107 0714 	add.w	r7, r7, #20
    3c2c:	46bd      	mov	sp, r7
    3c2e:	bc80      	pop	{r7}
    3c30:	b004      	add	sp, #16
    3c32:	4770      	bx	lr

00003c34 <LPLD_FTM_PinInit>:
/*
 * LPLD_FTM_PinInit
 * ʼͨnָŵFTMùܣڲ
 */
static uint8 LPLD_FTM_PinInit(FTM_MemMapPtr  ftmx, FtmChnEnum_Type chn, PortPinsEnum_Type pin)
{ 
    3c34:	b480      	push	{r7}
    3c36:	b083      	sub	sp, #12
    3c38:	af00      	add	r7, sp, #0
    3c3a:	6078      	str	r0, [r7, #4]
    3c3c:	4613      	mov	r3, r2
    3c3e:	460a      	mov	r2, r1
    3c40:	70fa      	strb	r2, [r7, #3]
    3c42:	70bb      	strb	r3, [r7, #2]
  //ftmxʹӦpinftm
  if(ftmx == FTM0)
    3c44:	687a      	ldr	r2, [r7, #4]
    3c46:	f44f 4300 	mov.w	r3, #32768	; 0x8000
    3c4a:	f2c4 0303 	movt	r3, #16387	; 0x4003
    3c4e:	429a      	cmp	r2, r3
    3c50:	f040 815b 	bne.w	3f0a <LPLD_FTM_PinInit+0x2d6>
  {
    switch(chn)
    3c54:	78fb      	ldrb	r3, [r7, #3]
    3c56:	2b07      	cmp	r3, #7
    3c58:	f200 8154 	bhi.w	3f04 <LPLD_FTM_PinInit+0x2d0>
    3c5c:	a201      	add	r2, pc, #4	; (adr r2, 3c64 <LPLD_FTM_PinInit+0x30>)
    3c5e:	f852 f023 	ldr.w	pc, [r2, r3, lsl #2]
    3c62:	bf00      	nop
    3c64:	00003c85 	andeq	r3, r0, r5, lsl #25
    3c68:	00003cd9 	ldrdeq	r3, [r0], -r9
    3c6c:	00003d2d 	andeq	r3, r0, sp, lsr #26
    3c70:	00003d7d 	andeq	r3, r0, sp, ror sp
    3c74:	00003dcb 	andeq	r3, r0, fp, asr #27
    3c78:	00003e19 	andeq	r3, r0, r9, lsl lr
    3c7c:	00003e67 	andeq	r3, r0, r7, ror #28
    3c80:	00003eb5 			; <UNDEFINED> instruction: 0x00003eb5
    {
    case FTM_Ch0:
      if(pin == PTA3)
    3c84:	78bb      	ldrb	r3, [r7, #2]
    3c86:	2b03      	cmp	r3, #3
    3c88:	d10f      	bne.n	3caa <LPLD_FTM_PinInit+0x76>
        PORTA->PCR[3] = (PORTA->PCR[3] & ~PORT_PCR_MUX_MASK) | PORT_PCR_MUX(3); 
    3c8a:	f44f 4310 	mov.w	r3, #36864	; 0x9000
    3c8e:	f2c4 0304 	movt	r3, #16388	; 0x4004
    3c92:	f44f 4210 	mov.w	r2, #36864	; 0x9000
    3c96:	f2c4 0204 	movt	r2, #16388	; 0x4004
    3c9a:	68d2      	ldr	r2, [r2, #12]
    3c9c:	f422 62e0 	bic.w	r2, r2, #1792	; 0x700
    3ca0:	f442 7240 	orr.w	r2, r2, #768	; 0x300
    3ca4:	60da      	str	r2, [r3, #12]
      else if(pin == PTC1)
        PORTC->PCR[1] = (PORTC->PCR[1] & ~PORT_PCR_MUX_MASK) | PORT_PCR_MUX(4);
      else
        return 0;
      break;
    3ca6:	f000 bc5a 	b.w	455e <LPLD_FTM_PinInit+0x92a>
