
out/k60_gpio_demo.elf:     file format elf32-littlearm


Disassembly of section .vectortable:

00000000 <__vector_table>:
   0:	20000000 	andcs	r0, r0, r0
   4:	0000092d 	andeq	r0, r0, sp, lsr #18
	...
  40:	00000925 	andeq	r0, r0, r5, lsr #18
  44:	00000925 	andeq	r0, r0, r5, lsr #18
  48:	00000925 	andeq	r0, r0, r5, lsr #18
  4c:	00000925 	andeq	r0, r0, r5, lsr #18
  50:	00000925 	andeq	r0, r0, r5, lsr #18
  54:	00000925 	andeq	r0, r0, r5, lsr #18
  58:	00000925 	andeq	r0, r0, r5, lsr #18
  5c:	00000925 	andeq	r0, r0, r5, lsr #18
  60:	00000925 	andeq	r0, r0, r5, lsr #18
  64:	00000925 	andeq	r0, r0, r5, lsr #18
  68:	00000925 	andeq	r0, r0, r5, lsr #18
  6c:	00000925 	andeq	r0, r0, r5, lsr #18
  70:	00000925 	andeq	r0, r0, r5, lsr #18
  74:	00000925 	andeq	r0, r0, r5, lsr #18
  78:	00000925 	andeq	r0, r0, r5, lsr #18
  7c:	00000925 	andeq	r0, r0, r5, lsr #18
  80:	00000925 	andeq	r0, r0, r5, lsr #18
  84:	00000925 	andeq	r0, r0, r5, lsr #18
  88:	00000925 	andeq	r0, r0, r5, lsr #18
  8c:	00000925 	andeq	r0, r0, r5, lsr #18
  90:	00000925 	andeq	r0, r0, r5, lsr #18
  94:	00000925 	andeq	r0, r0, r5, lsr #18
  98:	00000925 	andeq	r0, r0, r5, lsr #18
  9c:	00000925 	andeq	r0, r0, r5, lsr #18
  a0:	00000925 	andeq	r0, r0, r5, lsr #18
  a4:	00000925 	andeq	r0, r0, r5, lsr #18
  a8:	00000925 	andeq	r0, r0, r5, lsr #18
  ac:	00000925 	andeq	r0, r0, r5, lsr #18
  b0:	00000925 	andeq	r0, r0, r5, lsr #18
  b4:	00000925 	andeq	r0, r0, r5, lsr #18
  b8:	00000925 	andeq	r0, r0, r5, lsr #18
  bc:	00000925 	andeq	r0, r0, r5, lsr #18
  c0:	00000925 	andeq	r0, r0, r5, lsr #18
  c4:	00000925 	andeq	r0, r0, r5, lsr #18
  c8:	00000925 	andeq	r0, r0, r5, lsr #18
  cc:	00000925 	andeq	r0, r0, r5, lsr #18
  d0:	00000925 	andeq	r0, r0, r5, lsr #18
  d4:	00000925 	andeq	r0, r0, r5, lsr #18
  d8:	00000925 	andeq	r0, r0, r5, lsr #18
  dc:	00000925 	andeq	r0, r0, r5, lsr #18
  e0:	00000925 	andeq	r0, r0, r5, lsr #18
  e4:	00000925 	andeq	r0, r0, r5, lsr #18
  e8:	00000925 	andeq	r0, r0, r5, lsr #18
  ec:	00000925 	andeq	r0, r0, r5, lsr #18
  f0:	00000925 	andeq	r0, r0, r5, lsr #18
  f4:	00000925 	andeq	r0, r0, r5, lsr #18
  f8:	00000925 	andeq	r0, r0, r5, lsr #18
  fc:	00000925 	andeq	r0, r0, r5, lsr #18
 100:	00000925 	andeq	r0, r0, r5, lsr #18
 104:	00000925 	andeq	r0, r0, r5, lsr #18
 108:	00000925 	andeq	r0, r0, r5, lsr #18
 10c:	00000925 	andeq	r0, r0, r5, lsr #18
 110:	00000925 	andeq	r0, r0, r5, lsr #18
 114:	00000925 	andeq	r0, r0, r5, lsr #18
 118:	00000925 	andeq	r0, r0, r5, lsr #18
 11c:	00000925 	andeq	r0, r0, r5, lsr #18
 120:	00000925 	andeq	r0, r0, r5, lsr #18
 124:	00000925 	andeq	r0, r0, r5, lsr #18
 128:	00000925 	andeq	r0, r0, r5, lsr #18
 12c:	00000925 	andeq	r0, r0, r5, lsr #18
 130:	00000925 	andeq	r0, r0, r5, lsr #18
 134:	00000925 	andeq	r0, r0, r5, lsr #18
 138:	00000925 	andeq	r0, r0, r5, lsr #18
 13c:	00000925 	andeq	r0, r0, r5, lsr #18
 140:	00000925 	andeq	r0, r0, r5, lsr #18
 144:	00000925 	andeq	r0, r0, r5, lsr #18
 148:	00000925 	andeq	r0, r0, r5, lsr #18
 14c:	00000925 	andeq	r0, r0, r5, lsr #18
 150:	00000925 	andeq	r0, r0, r5, lsr #18
 154:	00000925 	andeq	r0, r0, r5, lsr #18
 158:	00000925 	andeq	r0, r0, r5, lsr #18
 15c:	00000925 	andeq	r0, r0, r5, lsr #18
 160:	00000925 	andeq	r0, r0, r5, lsr #18
 164:	00000925 	andeq	r0, r0, r5, lsr #18
 168:	00000925 	andeq	r0, r0, r5, lsr #18
 16c:	00000925 	andeq	r0, r0, r5, lsr #18
 170:	00000925 	andeq	r0, r0, r5, lsr #18
 174:	00000925 	andeq	r0, r0, r5, lsr #18
 178:	00000925 	andeq	r0, r0, r5, lsr #18
 17c:	00000925 	andeq	r0, r0, r5, lsr #18
 180:	00000925 	andeq	r0, r0, r5, lsr #18
 184:	00000925 	andeq	r0, r0, r5, lsr #18
 188:	00000925 	andeq	r0, r0, r5, lsr #18
 18c:	00000925 	andeq	r0, r0, r5, lsr #18
 190:	00000925 	andeq	r0, r0, r5, lsr #18
 194:	00000925 	andeq	r0, r0, r5, lsr #18
 198:	00000925 	andeq	r0, r0, r5, lsr #18
 19c:	00000925 	andeq	r0, r0, r5, lsr #18
 1a0:	000008b5 			; <UNDEFINED> instruction: 0x000008b5
 1a4:	00000925 	andeq	r0, r0, r5, lsr #18
 1a8:	00000925 	andeq	r0, r0, r5, lsr #18
 1ac:	00000925 	andeq	r0, r0, r5, lsr #18
 1b0:	00000925 	andeq	r0, r0, r5, lsr #18
 1b4:	00000925 	andeq	r0, r0, r5, lsr #18
 1b8:	00000925 	andeq	r0, r0, r5, lsr #18
 1bc:	00000925 	andeq	r0, r0, r5, lsr #18
 1c0:	00000925 	andeq	r0, r0, r5, lsr #18
 1c4:	00000925 	andeq	r0, r0, r5, lsr #18
 1c8:	00000925 	andeq	r0, r0, r5, lsr #18
 1cc:	00000925 	andeq	r0, r0, r5, lsr #18
 1d0:	00000925 	andeq	r0, r0, r5, lsr #18
 1d4:	00000925 	andeq	r0, r0, r5, lsr #18
 1d8:	00000925 	andeq	r0, r0, r5, lsr #18
 1dc:	00000925 	andeq	r0, r0, r5, lsr #18
 1e0:	00000925 	andeq	r0, r0, r5, lsr #18
 1e4:	00000925 	andeq	r0, r0, r5, lsr #18
 1e8:	00000925 	andeq	r0, r0, r5, lsr #18
 1ec:	00000925 	andeq	r0, r0, r5, lsr #18
 1f0:	00000925 	andeq	r0, r0, r5, lsr #18
 1f4:	00000925 	andeq	r0, r0, r5, lsr #18
 1f8:	00000925 	andeq	r0, r0, r5, lsr #18
 1fc:	00000925 	andeq	r0, r0, r5, lsr #18
 200:	00000925 	andeq	r0, r0, r5, lsr #18
 204:	00000925 	andeq	r0, r0, r5, lsr #18
 208:	00000925 	andeq	r0, r0, r5, lsr #18
 20c:	00000925 	andeq	r0, r0, r5, lsr #18
 210:	00000925 	andeq	r0, r0, r5, lsr #18
 214:	00000925 	andeq	r0, r0, r5, lsr #18
 218:	00000925 	andeq	r0, r0, r5, lsr #18
 21c:	00000925 	andeq	r0, r0, r5, lsr #18
 220:	00000925 	andeq	r0, r0, r5, lsr #18
 224:	00000925 	andeq	r0, r0, r5, lsr #18
 228:	00000925 	andeq	r0, r0, r5, lsr #18
 22c:	00000925 	andeq	r0, r0, r5, lsr #18
 230:	00000925 	andeq	r0, r0, r5, lsr #18
 234:	00000925 	andeq	r0, r0, r5, lsr #18
 238:	00000925 	andeq	r0, r0, r5, lsr #18
 23c:	00000925 	andeq	r0, r0, r5, lsr #18
 240:	00000925 	andeq	r0, r0, r5, lsr #18
 244:	00000925 	andeq	r0, r0, r5, lsr #18
 248:	00000925 	andeq	r0, r0, r5, lsr #18
 24c:	00000925 	andeq	r0, r0, r5, lsr #18
 250:	00000925 	andeq	r0, r0, r5, lsr #18
 254:	00000925 	andeq	r0, r0, r5, lsr #18
 258:	00000925 	andeq	r0, r0, r5, lsr #18
 25c:	00000925 	andeq	r0, r0, r5, lsr #18
 260:	00000925 	andeq	r0, r0, r5, lsr #18
 264:	00000925 	andeq	r0, r0, r5, lsr #18
 268:	00000925 	andeq	r0, r0, r5, lsr #18
 26c:	00000925 	andeq	r0, r0, r5, lsr #18
 270:	00000925 	andeq	r0, r0, r5, lsr #18
 274:	00000925 	andeq	r0, r0, r5, lsr #18
 278:	00000925 	andeq	r0, r0, r5, lsr #18
 27c:	00000925 	andeq	r0, r0, r5, lsr #18
 280:	00000925 	andeq	r0, r0, r5, lsr #18
 284:	00000925 	andeq	r0, r0, r5, lsr #18
 288:	00000925 	andeq	r0, r0, r5, lsr #18
 28c:	00000925 	andeq	r0, r0, r5, lsr #18
 290:	00000925 	andeq	r0, r0, r5, lsr #18
 294:	00000925 	andeq	r0, r0, r5, lsr #18
 298:	00000925 	andeq	r0, r0, r5, lsr #18
 29c:	00000925 	andeq	r0, r0, r5, lsr #18
 2a0:	00000925 	andeq	r0, r0, r5, lsr #18
 2a4:	00000925 	andeq	r0, r0, r5, lsr #18
 2a8:	00000925 	andeq	r0, r0, r5, lsr #18
 2ac:	00000925 	andeq	r0, r0, r5, lsr #18
 2b0:	00000925 	andeq	r0, r0, r5, lsr #18
 2b4:	00000925 	andeq	r0, r0, r5, lsr #18
 2b8:	00000925 	andeq	r0, r0, r5, lsr #18
 2bc:	00000925 	andeq	r0, r0, r5, lsr #18
 2c0:	00000925 	andeq	r0, r0, r5, lsr #18
 2c4:	00000925 	andeq	r0, r0, r5, lsr #18
 2c8:	00000925 	andeq	r0, r0, r5, lsr #18
 2cc:	00000925 	andeq	r0, r0, r5, lsr #18
 2d0:	00000925 	andeq	r0, r0, r5, lsr #18
 2d4:	00000925 	andeq	r0, r0, r5, lsr #18
 2d8:	00000925 	andeq	r0, r0, r5, lsr #18
 2dc:	00000925 	andeq	r0, r0, r5, lsr #18
 2e0:	00000925 	andeq	r0, r0, r5, lsr #18
 2e4:	00000925 	andeq	r0, r0, r5, lsr #18
 2e8:	00000925 	andeq	r0, r0, r5, lsr #18
 2ec:	00000925 	andeq	r0, r0, r5, lsr #18
 2f0:	00000925 	andeq	r0, r0, r5, lsr #18
 2f4:	00000925 	andeq	r0, r0, r5, lsr #18
 2f8:	00000925 	andeq	r0, r0, r5, lsr #18
 2fc:	00000925 	andeq	r0, r0, r5, lsr #18
 300:	00000925 	andeq	r0, r0, r5, lsr #18
 304:	00000925 	andeq	r0, r0, r5, lsr #18
 308:	00000925 	andeq	r0, r0, r5, lsr #18
 30c:	00000925 	andeq	r0, r0, r5, lsr #18
 310:	00000925 	andeq	r0, r0, r5, lsr #18
 314:	00000925 	andeq	r0, r0, r5, lsr #18
 318:	00000925 	andeq	r0, r0, r5, lsr #18
 31c:	00000925 	andeq	r0, r0, r5, lsr #18
 320:	00000925 	andeq	r0, r0, r5, lsr #18
 324:	00000925 	andeq	r0, r0, r5, lsr #18
 328:	00000925 	andeq	r0, r0, r5, lsr #18
 32c:	00000925 	andeq	r0, r0, r5, lsr #18
 330:	00000925 	andeq	r0, r0, r5, lsr #18
 334:	00000925 	andeq	r0, r0, r5, lsr #18
 338:	00000925 	andeq	r0, r0, r5, lsr #18
 33c:	00000925 	andeq	r0, r0, r5, lsr #18
 340:	00000925 	andeq	r0, r0, r5, lsr #18
 344:	00000925 	andeq	r0, r0, r5, lsr #18
 348:	00000925 	andeq	r0, r0, r5, lsr #18
 34c:	00000925 	andeq	r0, r0, r5, lsr #18
 350:	00000925 	andeq	r0, r0, r5, lsr #18
 354:	00000925 	andeq	r0, r0, r5, lsr #18
 358:	00000925 	andeq	r0, r0, r5, lsr #18
 35c:	00000925 	andeq	r0, r0, r5, lsr #18
 360:	00000925 	andeq	r0, r0, r5, lsr #18
 364:	00000925 	andeq	r0, r0, r5, lsr #18
 368:	00000925 	andeq	r0, r0, r5, lsr #18
 36c:	00000925 	andeq	r0, r0, r5, lsr #18
 370:	00000925 	andeq	r0, r0, r5, lsr #18
 374:	00000925 	andeq	r0, r0, r5, lsr #18
 378:	00000925 	andeq	r0, r0, r5, lsr #18
 37c:	00000925 	andeq	r0, r0, r5, lsr #18
 380:	00000925 	andeq	r0, r0, r5, lsr #18
 384:	00000925 	andeq	r0, r0, r5, lsr #18
 388:	00000925 	andeq	r0, r0, r5, lsr #18
 38c:	00000925 	andeq	r0, r0, r5, lsr #18
 390:	00000925 	andeq	r0, r0, r5, lsr #18
 394:	00000925 	andeq	r0, r0, r5, lsr #18
 398:	00000925 	andeq	r0, r0, r5, lsr #18
 39c:	00000925 	andeq	r0, r0, r5, lsr #18
 3a0:	00000925 	andeq	r0, r0, r5, lsr #18
 3a4:	00000925 	andeq	r0, r0, r5, lsr #18
 3a8:	00000925 	andeq	r0, r0, r5, lsr #18
 3ac:	00000925 	andeq	r0, r0, r5, lsr #18
 3b0:	00000925 	andeq	r0, r0, r5, lsr #18
 3b4:	00000925 	andeq	r0, r0, r5, lsr #18
 3b8:	00000925 	andeq	r0, r0, r5, lsr #18
 3bc:	00000925 	andeq	r0, r0, r5, lsr #18
 3c0:	00000925 	andeq	r0, r0, r5, lsr #18
 3c4:	00000925 	andeq	r0, r0, r5, lsr #18
 3c8:	00000925 	andeq	r0, r0, r5, lsr #18
 3cc:	00000925 	andeq	r0, r0, r5, lsr #18
 3d0:	00000925 	andeq	r0, r0, r5, lsr #18
 3d4:	00000925 	andeq	r0, r0, r5, lsr #18
 3d8:	00000925 	andeq	r0, r0, r5, lsr #18
 3dc:	00000925 	andeq	r0, r0, r5, lsr #18
 3e0:	00000925 	andeq	r0, r0, r5, lsr #18
 3e4:	00000925 	andeq	r0, r0, r5, lsr #18
 3e8:	00000925 	andeq	r0, r0, r5, lsr #18
 3ec:	00000925 	andeq	r0, r0, r5, lsr #18
 3f0:	00000925 	andeq	r0, r0, r5, lsr #18
 3f4:	00000925 	andeq	r0, r0, r5, lsr #18
 3f8:	00000925 	andeq	r0, r0, r5, lsr #18
 3fc:	00000925 	andeq	r0, r0, r5, lsr #18
 400:	ffffffff 			; <UNDEFINED> instruction: 0xffffffff
 404:	ffffffff 			; <UNDEFINED> instruction: 0xffffffff
 408:	ffffffff 			; <UNDEFINED> instruction: 0xffffffff
 40c:	fffffffe 			; <UNDEFINED> instruction: 0xfffffffe

Disassembly of section .text:

00000800 <main>:
 * \param  void
 *
 * \return void
 */
int main(void)
{
 800:	b580      	push	{r7, lr}
 802:	af00      	add	r7, sp, #0
  //SystemInit();

  NVICICPR2 |= 1 << (87 & 0x1F);
 804:	f44f 4361 	mov.w	r3, #57600	; 0xe100
 808:	f2ce 0300 	movt	r3, #57344	; 0xe000
 80c:	f44f 4261 	mov.w	r2, #57600	; 0xe100
 810:	f2ce 0200 	movt	r2, #57344	; 0xe000
 814:	f8d2 2188 	ldr.w	r2, [r2, #392]	; 0x188
 818:	f442 0200 	orr.w	r2, r2, #8388608	; 0x800000
 81c:	f8c3 2188 	str.w	r2, [r3, #392]	; 0x188
  NVICISER2 |= 1 << (87 & 0x1F);
 820:	f44f 4361 	mov.w	r3, #57600	; 0xe100
 824:	f2ce 0300 	movt	r3, #57344	; 0xe000
 828:	f44f 4261 	mov.w	r2, #57600	; 0xe100
 82c:	f2ce 0200 	movt	r2, #57344	; 0xe000
 830:	6892      	ldr	r2, [r2, #8]
 832:	f442 0200 	orr.w	r2, r2, #8388608	; 0x800000
 836:	609a      	str	r2, [r3, #8]

  gpio_init();
 838:	f000 f818 	bl	86c <gpio_init>

  LED1_OFF;
 83c:	f24f 0340 	movw	r3, #61504	; 0xf040
 840:	f2c4 030f 	movt	r3, #16399	; 0x400f
 844:	f44f 1200 	mov.w	r2, #2097152	; 0x200000
 848:	605a      	str	r2, [r3, #4]
  LED2_OFF;
 84a:	f24f 0340 	movw	r3, #61504	; 0xf040
 84e:	f2c4 030f 	movt	r3, #16399	; 0x400f
 852:	f44f 0280 	mov.w	r2, #4194304	; 0x400000
 856:	605a      	str	r2, [r3, #4]

  while(1)
  {
//    LED1_TOGGLE;
    LED2_TOGGLE;
 858:	f24f 0340 	movw	r3, #61504	; 0xf040
 85c:	f2c4 030f 	movt	r3, #16399	; 0x400f
 860:	f44f 0280 	mov.w	r2, #4194304	; 0x400000
 864:	60da      	str	r2, [r3, #12]
    delay();
 866:	f000 f839 	bl	8dc <delay>
  }
 86a:	e7f5      	b.n	858 <main+0x58>

0000086c <gpio_init>:
 * \param  void
 *
 * \return void
 */
void gpio_init(void)
{
 86c:	b480      	push	{r7}
 86e:	af00      	add	r7, sp, #0
  PORTB_PCR19 = PORT_PCR_MUX(1) | PORT_PCR_IRQC(0xA) | PORT_PCR_PE_MASK | PORT_PCR_PS_MASK;
 870:	f44f 4320 	mov.w	r3, #40960	; 0xa000
 874:	f2c4 0304 	movt	r3, #16388	; 0x4004
 878:	f240 1203 	movw	r2, #259	; 0x103
 87c:	f2c0 020a 	movt	r2, #10
 880:	64da      	str	r2, [r3, #76]	; 0x4c
  PORTB_PCR21 = (PORT_PCR_MUX(1));
 882:	f44f 4320 	mov.w	r3, #40960	; 0xa000
 886:	f2c4 0304 	movt	r3, #16388	; 0x4004
 88a:	f44f 7280 	mov.w	r2, #256	; 0x100
 88e:	655a      	str	r2, [r3, #84]	; 0x54
  PORTB_PCR22 = (PORT_PCR_MUX(1));
 890:	f44f 4320 	mov.w	r3, #40960	; 0xa000
 894:	f2c4 0304 	movt	r3, #16388	; 0x4004
 898:	f44f 7280 	mov.w	r2, #256	; 0x100
 89c:	659a      	str	r2, [r3, #88]	; 0x58
  GPIOB_PDDR = (LED1 | LED2);
 89e:	f24f 0340 	movw	r3, #61504	; 0xf040
 8a2:	f2c4 030f 	movt	r3, #16399	; 0x400f
 8a6:	f44f 02c0 	mov.w	r2, #6291456	; 0x600000
 8aa:	615a      	str	r2, [r3, #20]
}
 8ac:	46bd      	mov	sp, r7
 8ae:	bc80      	pop	{r7}
 8b0:	4770      	bx	lr
 8b2:	bf00      	nop

000008b4 <PORTB_IRQHandler>:
 * \param  void
 *
 * \return void
 */
void PORTB_IRQHandler(void)
{
 8b4:	b480      	push	{r7}
 8b6:	af00      	add	r7, sp, #0
  PORTB_ISFR = 0xFFFFFFFF;
 8b8:	f44f 4320 	mov.w	r3, #40960	; 0xa000
 8bc:	f2c4 0304 	movt	r3, #16388	; 0x4004
 8c0:	f04f 32ff 	mov.w	r2, #4294967295
 8c4:	f8c3 20a0 	str.w	r2, [r3, #160]	; 0xa0
  LED2_TOGGLE;
 8c8:	f24f 0340 	movw	r3, #61504	; 0xf040
 8cc:	f2c4 030f 	movt	r3, #16399	; 0x400f
 8d0:	f44f 0280 	mov.w	r2, #4194304	; 0x400000
 8d4:	60da      	str	r2, [r3, #12]
}
 8d6:	46bd      	mov	sp, r7
 8d8:	bc80      	pop	{r7}
 8da:	4770      	bx	lr

000008dc <delay>:
 * \param  void
 *
 * \return void
 */
void delay(void)
{
 8dc:	b480      	push	{r7}
 8de:	b083      	sub	sp, #12
 8e0:	af00      	add	r7, sp, #0
  volatile unsigned int i,j;

  for(i=0; i<10000; i++)
 8e2:	f04f 0300 	mov.w	r3, #0
 8e6:	607b      	str	r3, [r7, #4]
 8e8:	e011      	b.n	90e <delay+0x32>
  {
	for(j=0; j<300; j++)
 8ea:	f04f 0300 	mov.w	r3, #0
 8ee:	603b      	str	r3, [r7, #0]
 8f0:	e004      	b.n	8fc <delay+0x20>
      __asm__("nop");
 8f2:	bf00      	nop
{
  volatile unsigned int i,j;

  for(i=0; i<10000; i++)
  {
	for(j=0; j<300; j++)
 8f4:	683b      	ldr	r3, [r7, #0]
 8f6:	f103 0301 	add.w	r3, r3, #1
 8fa:	603b      	str	r3, [r7, #0]
 8fc:	683a      	ldr	r2, [r7, #0]
 8fe:	f240 132b 	movw	r3, #299	; 0x12b
 902:	429a      	cmp	r2, r3
 904:	d9f5      	bls.n	8f2 <delay+0x16>
 */
void delay(void)
{
  volatile unsigned int i,j;

  for(i=0; i<10000; i++)
 906:	687b      	ldr	r3, [r7, #4]
 908:	f103 0301 	add.w	r3, r3, #1
 90c:	607b      	str	r3, [r7, #4]
 90e:	687a      	ldr	r2, [r7, #4]
 910:	f242 730f 	movw	r3, #9999	; 0x270f
 914:	429a      	cmp	r2, r3
 916:	d9e8      	bls.n	8ea <delay+0xe>
  {
	for(j=0; j<300; j++)
      __asm__("nop");
  }
}
 918:	f107 070c 	add.w	r7, r7, #12
 91c:	46bd      	mov	sp, r7
 91e:	bc80      	pop	{r7}
 920:	4770      	bx	lr
 922:	bf00      	nop

00000924 <ADC0_IRQHandler>:
 * \param  void
 *
 * \return void
 */
void Default_Handler(void)
{
 924:	b480      	push	{r7}
 926:	af00      	add	r7, sp, #0
  while (1);
 928:	e7fe      	b.n	928 <ADC0_IRQHandler+0x4>
 92a:	bf00      	nop

0000092c <Reset_Handler>:
 * \param  void
 *
 * \return void
 */
void Reset_Handler(void)
{
 92c:	b580      	push	{r7, lr}
 92e:	b082      	sub	sp, #8
 930:	af00      	add	r7, sp, #0
  unsigned char *source;
  unsigned char *destination;

  /* watchdog disable */
  *((volatile unsigned short *)0x4005200E) = 0xC520;
 932:	f242 030e 	movw	r3, #8206	; 0x200e
 936:	f2c4 0305 	movt	r3, #16389	; 0x4005
 93a:	f24c 5220 	movw	r2, #50464	; 0xc520
 93e:	801a      	strh	r2, [r3, #0]
  *((volatile unsigned short *)0x4005200E) = 0xD928;
 940:	f242 030e 	movw	r3, #8206	; 0x200e
 944:	f2c4 0305 	movt	r3, #16389	; 0x4005
 948:	f64d 1228 	movw	r2, #55592	; 0xd928
 94c:	801a      	strh	r2, [r3, #0]
  *((volatile unsigned short *)0x40052000) = 0x01D2;
 94e:	f44f 5300 	mov.w	r3, #8192	; 0x2000
 952:	f2c4 0305 	movt	r3, #16389	; 0x4005
 956:	f44f 72e9 	mov.w	r2, #466	; 0x1d2
 95a:	801a      	strh	r2, [r3, #0]

  /* copy data values from ROM to RAM */
  source = (unsigned char *)&_etext;
 95c:	f640 33a0 	movw	r3, #2976	; 0xba0
 960:	f2c0 0300 	movt	r3, #0
 964:	607b      	str	r3, [r7, #4]
  destination = (unsigned char *)&_sdata;
 966:	f240 0300 	movw	r3, #0
 96a:	f6c1 73ff 	movt	r3, #8191	; 0x1fff
 96e:	603b      	str	r3, [r7, #0]
  while (destination < (unsigned char*)&_edata) {
 970:	e00b      	b.n	98a <Reset_Handler+0x5e>
    *(destination++) = *(source++);
 972:	687b      	ldr	r3, [r7, #4]
 974:	781a      	ldrb	r2, [r3, #0]
 976:	683b      	ldr	r3, [r7, #0]
 978:	701a      	strb	r2, [r3, #0]
 97a:	683b      	ldr	r3, [r7, #0]
 97c:	f103 0301 	add.w	r3, r3, #1
 980:	603b      	str	r3, [r7, #0]
 982:	687b      	ldr	r3, [r7, #4]
 984:	f103 0301 	add.w	r3, r3, #1
 988:	607b      	str	r3, [r7, #4]
  *((volatile unsigned short *)0x40052000) = 0x01D2;

  /* copy data values from ROM to RAM */
  source = (unsigned char *)&_etext;
  destination = (unsigned char *)&_sdata;
  while (destination < (unsigned char*)&_edata) {
 98a:	683a      	ldr	r2, [r7, #0]
 98c:	f240 0304 	movw	r3, #4
 990:	f6c1 73ff 	movt	r3, #8191	; 0x1fff
 994:	429a      	cmp	r2, r3
 996:	d3ec      	bcc.n	972 <Reset_Handler+0x46>
    *(destination++) = *(source++);
  }

  /* clear bss section */
  source = (unsigned char *)&_sbss;
 998:	f240 0304 	movw	r3, #4
 99c:	f6c1 73ff 	movt	r3, #8191	; 0x1fff
 9a0:	607b      	str	r3, [r7, #4]
  destination = (unsigned char *)&_ebss;
 9a2:	f240 0308 	movw	r3, #8
 9a6:	f6c1 73ff 	movt	r3, #8191	; 0x1fff
 9aa:	603b      	str	r3, [r7, #0]
  while (source < destination ) {
 9ac:	e007      	b.n	9be <Reset_Handler+0x92>
    *source++ = 0;
 9ae:	687b      	ldr	r3, [r7, #4]
 9b0:	f04f 0200 	mov.w	r2, #0
 9b4:	701a      	strb	r2, [r3, #0]
 9b6:	687b      	ldr	r3, [r7, #4]
 9b8:	f103 0301 	add.w	r3, r3, #1
 9bc:	607b      	str	r3, [r7, #4]
  }

  /* clear bss section */
  source = (unsigned char *)&_sbss;
  destination = (unsigned char *)&_ebss;
  while (source < destination ) {
 9be:	687a      	ldr	r2, [r7, #4]
 9c0:	683b      	ldr	r3, [r7, #0]
 9c2:	429a      	cmp	r2, r3
 9c4:	d3f3      	bcc.n	9ae <Reset_Handler+0x82>
    *source++ = 0;
  }
 //进入系统初始化函数
  SystemInit();
 9c6:	f000 f803 	bl	9d0 <SystemInit>
 //进入用户函数
  main();
 9ca:	f7ff ff19 	bl	800 <main>

  while(1);
 9ce:	e7fe      	b.n	9ce <Reset_Handler+0xa2>

000009d0 <SystemInit>:
 * \param  void
 *
 * \return void
 */
void SystemInit(void)
{
 9d0:	b480      	push	{r7}
 9d2:	b083      	sub	sp, #12
 9d4:	af00      	add	r7, sp, #0
  uint32_t temp_pfapr, i;
  //使能所有IO口时钟
  SIM_SCGC5 |= (SIM_SCGC5_PORTA_MASK | SIM_SCGC5_PORTB_MASK
 9d6:	f44f 43e0 	mov.w	r3, #28672	; 0x7000
 9da:	f2c4 0304 	movt	r3, #16388	; 0x4004
 9de:	f44f 42e0 	mov.w	r2, #28672	; 0x7000
 9e2:	f2c4 0204 	movt	r2, #16388	; 0x4004
 9e6:	f502 5281 	add.w	r2, r2, #4128	; 0x1020
 9ea:	f102 0218 	add.w	r2, r2, #24
 9ee:	6812      	ldr	r2, [r2, #0]
 9f0:	f442 5278 	orr.w	r2, r2, #15872	; 0x3e00
 9f4:	f503 5381 	add.w	r3, r3, #4128	; 0x1020
 9f8:	f103 0318 	add.w	r3, r3, #24
 9fc:	601a      	str	r2, [r3, #0]
              | SIM_SCGC5_PORTC_MASK | SIM_SCGC5_PORTD_MASK
              | SIM_SCGC5_PORTE_MASK);
  //首先移动到FBE模式
  MCG_C2 = 0;
 9fe:	f44f 4380 	mov.w	r3, #16384	; 0x4000
 a02:	f2c4 0306 	movt	r3, #16390	; 0x4006
 a06:	f04f 0200 	mov.w	r2, #0
 a0a:	705a      	strb	r2, [r3, #1]
  //振荡器初始化完成后，释放锁存状态下的oscillator和GPIO
  SIM_SCGC4 |= SIM_SCGC4_LLWU_MASK;
 a0c:	f44f 43e0 	mov.w	r3, #28672	; 0x7000
 a10:	f2c4 0304 	movt	r3, #16388	; 0x4004
 a14:	f44f 42e0 	mov.w	r2, #28672	; 0x7000
 a18:	f2c4 0204 	movt	r2, #16388	; 0x4004
 a1c:	f502 5281 	add.w	r2, r2, #4128	; 0x1020
 a20:	f102 0214 	add.w	r2, r2, #20
 a24:	6812      	ldr	r2, [r2, #0]
 a26:	f042 5280 	orr.w	r2, r2, #268435456	; 0x10000000
 a2a:	f503 5381 	add.w	r3, r3, #4128	; 0x1020
 a2e:	f103 0314 	add.w	r3, r3, #20
 a32:	601a      	str	r2, [r3, #0]
  //LLWU_CS |= LLWU_CS_ACKISO_MASK;
  //选择外部晶振和参考分频器和清零IREFS并启动外部osc
  MCG_C1 = MCG_C1_CLKS(2) | MCG_C1_FRDIV(3);
 a34:	f44f 4380 	mov.w	r3, #16384	; 0x4000
 a38:	f2c4 0306 	movt	r3, #16390	; 0x4006
 a3c:	f04f 0298 	mov.w	r2, #152	; 0x98
 a40:	701a      	strb	r2, [r3, #0]
  while (MCG_S & MCG_S_IREFST_MASK);//等待参考时钟清零
 a42:	bf00      	nop
 a44:	f44f 4380 	mov.w	r3, #16384	; 0x4000
 a48:	f2c4 0306 	movt	r3, #16390	; 0x4006
 a4c:	799b      	ldrb	r3, [r3, #6]
 a4e:	b2db      	uxtb	r3, r3
 a50:	f003 0310 	and.w	r3, r3, #16
 a54:	2b00      	cmp	r3, #0
 a56:	d1f5      	bne.n	a44 <SystemInit+0x74>
  while (((MCG_S & MCG_S_CLKST_MASK) >> MCG_S_CLKST_SHIFT) != 0x2);
 a58:	bf00      	nop
 a5a:	f44f 4380 	mov.w	r3, #16384	; 0x4000
 a5e:	f2c4 0306 	movt	r3, #16390	; 0x4006
 a62:	799b      	ldrb	r3, [r3, #6]
 a64:	b2db      	uxtb	r3, r3
 a66:	f003 030c 	and.w	r3, r3, #12
 a6a:	ea4f 0393 	mov.w	r3, r3, lsr #2
 a6e:	2b02      	cmp	r3, #2
 a70:	d1f3      	bne.n	a5a <SystemInit+0x8a>

  MCG_C5 = MCG_C5_PRDIV(7);
 a72:	f44f 4380 	mov.w	r3, #16384	; 0x4000
 a76:	f2c4 0306 	movt	r3, #16390	; 0x4006
 a7a:	f04f 0207 	mov.w	r2, #7
 a7e:	711a      	strb	r2, [r3, #4]
  MCG_C6 = 0x0;
 a80:	f44f 4380 	mov.w	r3, #16384	; 0x4000
 a84:	f2c4 0306 	movt	r3, #16390	; 0x4006
 a88:	f04f 0200 	mov.w	r2, #0
 a8c:	715a      	strb	r2, [r3, #5]

  temp_pfapr = FMC_PFAPR;
 a8e:	f44f 4370 	mov.w	r3, #61440	; 0xf000
 a92:	f2c4 0301 	movt	r3, #16385	; 0x4001
 a96:	681b      	ldr	r3, [r3, #0]
 a98:	603b      	str	r3, [r7, #0]

  FMC_PFAPR |= FMC_PFAPR_M7PFD_MASK | FMC_PFAPR_M6PFD_MASK | FMC_PFAPR_M5PFD_MASK
 a9a:	f44f 4370 	mov.w	r3, #61440	; 0xf000
 a9e:	f2c4 0301 	movt	r3, #16385	; 0x4001
 aa2:	f44f 4270 	mov.w	r2, #61440	; 0xf000
 aa6:	f2c4 0201 	movt	r2, #16385	; 0x4001
 aaa:	6812      	ldr	r2, [r2, #0]
 aac:	f442 027f 	orr.w	r2, r2, #16711680	; 0xff0000
 ab0:	601a      	str	r2, [r3, #0]
             | FMC_PFAPR_M4PFD_MASK | FMC_PFAPR_M3PFD_MASK | FMC_PFAPR_M2PFD_MASK
             | FMC_PFAPR_M1PFD_MASK | FMC_PFAPR_M0PFD_MASK;

  SIM_CLKDIV1 = SIM_CLKDIV1_OUTDIV1(0) | SIM_CLKDIV1_OUTDIV2(1)
 ab2:	f44f 43e0 	mov.w	r3, #28672	; 0x7000
 ab6:	f2c4 0304 	movt	r3, #16388	; 0x4004
 aba:	f503 5382 	add.w	r3, r3, #4160	; 0x1040
 abe:	f103 0304 	add.w	r3, r3, #4
 ac2:	f04f 0200 	mov.w	r2, #0
 ac6:	f2c0 1213 	movt	r2, #275	; 0x113
 aca:	601a      	str	r2, [r3, #0]
              | SIM_CLKDIV1_OUTDIV3(1) | SIM_CLKDIV1_OUTDIV4(3);

  for (i = 0 ; i < 4 ; i++);
 acc:	f04f 0300 	mov.w	r3, #0
 ad0:	607b      	str	r3, [r7, #4]
 ad2:	e003      	b.n	adc <SystemInit+0x10c>
 ad4:	687b      	ldr	r3, [r7, #4]
 ad6:	f103 0301 	add.w	r3, r3, #1
 ada:	607b      	str	r3, [r7, #4]
 adc:	687b      	ldr	r3, [r7, #4]
 ade:	2b03      	cmp	r3, #3
 ae0:	d9f8      	bls.n	ad4 <SystemInit+0x104>

  FMC_PFAPR = temp_pfapr;
 ae2:	f44f 4370 	mov.w	r3, #61440	; 0xf000
 ae6:	f2c4 0301 	movt	r3, #16385	; 0x4001
 aea:	683a      	ldr	r2, [r7, #0]
 aec:	601a      	str	r2, [r3, #0]

  MCG_C6 = MCG_C6_PLLS_MASK | MCG_C6_VDIV(16);
 aee:	f44f 4380 	mov.w	r3, #16384	; 0x4000
 af2:	f2c4 0306 	movt	r3, #16390	; 0x4006
 af6:	f04f 0250 	mov.w	r2, #80	; 0x50
 afa:	715a      	strb	r2, [r3, #5]
  while (!(MCG_S & MCG_S_PLLST_MASK));
 afc:	bf00      	nop
 afe:	f44f 4380 	mov.w	r3, #16384	; 0x4000
 b02:	f2c4 0306 	movt	r3, #16390	; 0x4006
 b06:	799b      	ldrb	r3, [r3, #6]
 b08:	b2db      	uxtb	r3, r3
 b0a:	f003 0320 	and.w	r3, r3, #32
 b0e:	2b00      	cmp	r3, #0
 b10:	d0f5      	beq.n	afe <SystemInit+0x12e>

  while (!(MCG_S & MCG_S_LOCK_MASK));
 b12:	bf00      	nop
 b14:	f44f 4380 	mov.w	r3, #16384	; 0x4000
 b18:	f2c4 0306 	movt	r3, #16390	; 0x4006
 b1c:	799b      	ldrb	r3, [r3, #6]
 b1e:	b2db      	uxtb	r3, r3
 b20:	f003 0340 	and.w	r3, r3, #64	; 0x40
 b24:	2b00      	cmp	r3, #0
 b26:	d0f5      	beq.n	b14 <SystemInit+0x144>
  MCG_C1 &= ~MCG_C1_CLKS_MASK;
 b28:	f44f 4380 	mov.w	r3, #16384	; 0x4000
 b2c:	f2c4 0306 	movt	r3, #16390	; 0x4006
 b30:	f44f 4280 	mov.w	r2, #16384	; 0x4000
 b34:	f2c4 0206 	movt	r2, #16390	; 0x4006
 b38:	7812      	ldrb	r2, [r2, #0]
 b3a:	b2d2      	uxtb	r2, r2
 b3c:	f002 023f 	and.w	r2, r2, #63	; 0x3f
 b40:	b2d2      	uxtb	r2, r2
 b42:	701a      	strb	r2, [r3, #0]
  while (((MCG_S & MCG_S_CLKST_MASK) >> MCG_S_CLKST_SHIFT) != 0x3);
 b44:	bf00      	nop
 b46:	f44f 4380 	mov.w	r3, #16384	; 0x4000
 b4a:	f2c4 0306 	movt	r3, #16390	; 0x4006
 b4e:	799b      	ldrb	r3, [r3, #6]
 b50:	b2db      	uxtb	r3, r3
 b52:	f003 030c 	and.w	r3, r3, #12
 b56:	ea4f 0393 	mov.w	r3, r3, lsr #2
 b5a:	2b03      	cmp	r3, #3
 b5c:	d1f3      	bne.n	b46 <SystemInit+0x176>

  periph_clk_khz = 96000 / (((SIM_CLKDIV1 & SIM_CLKDIV1_OUTDIV2_MASK) >> 24) + 1);
 b5e:	f44f 43e0 	mov.w	r3, #28672	; 0x7000
 b62:	f2c4 0304 	movt	r3, #16388	; 0x4004
 b66:	f503 5382 	add.w	r3, r3, #4160	; 0x1040
 b6a:	f103 0304 	add.w	r3, r3, #4
 b6e:	681b      	ldr	r3, [r3, #0]
 b70:	f003 6370 	and.w	r3, r3, #251658240	; 0xf000000
 b74:	ea4f 6313 	mov.w	r3, r3, lsr #24
 b78:	f103 0201 	add.w	r2, r3, #1
 b7c:	f44f 43ee 	mov.w	r3, #30464	; 0x7700
 b80:	f2c0 0301 	movt	r3, #1
 b84:	fbb3 f3f2 	udiv	r3, r3, r2
 b88:	461a      	mov	r2, r3
 b8a:	f240 0304 	movw	r3, #4
 b8e:	f6c1 73ff 	movt	r3, #8191	; 0x1fff
 b92:	601a      	str	r2, [r3, #0]
}
 b94:	f107 070c 	add.w	r7, r7, #12
 b98:	46bd      	mov	sp, r7
 b9a:	bc80      	pop	{r7}
 b9c:	4770      	bx	lr
 b9e:	bf00      	nop
